ASM6502        PROGRAM LISTING AND SYMBOL TABLE        DATE: 2023-04-25 14:07

MAIN INPUT FILE: basic.a65

 Line# FPos PC    Code           Source
 FILE: disclaim.a65
    1:                          ;****************************************
    2:                          ;*                                      *
    3:                          ;* BBBBB   AAAA   SSS  IIII  CCCC       *
    4:                          ;* BB  BB AA  AA SS  S  II  CC   C      *
    5:                          ;* BB  BB AA  AA  SS    II  CC          *
    6:                          ;* BBBBB  AAAAAA   SS   II  CC          *
    7:                          ;* BB  BB AA  AA    SS  II  CC          *
    8:                          ;* BB  BB AA  AA S  SS  II  CC   C      *
    9:                          ;* BBBBB  AA  AA  SSS  IIII  CCCC       *
   10:                          ;*                                      *
   11:                          ;****************************************
   12:                          ;
   13:                          ;****************************************
   14:                          ;*                                      *
   15:                          ;* PET BASIC VERSION 2.2                *
   16:                          ;*      THIS VERSION OF PET BASIC IS    *
   17:                          ;* DESIGNED TO FUNCTION WITH THE KERNAL *
   18:                          ;* PROVIDED IN THE FOLOWING MACHINES:   *
   19:                          ;*      2001-4/8 (B/N)                  *
   20:                          ;*      4016/4032                       *
   21:                          ;*      8032                            *
   22:                          ;*      TOY                             *
   23:                          ;*      VIC-20/VIC-40                   *
   24:                          ;*    * COMMODORE 10/16/64              *
   25:                          ;*      MAX                             *
   26:                          ;* COPYRIGHT (C) 1982 BY                *
   27:                          ;* COMMODORE BUSINESS MACHINES          *
   28:                          ;*                                      *
   29:                          ;****************************************
   30:                          
   31:                          ;*****LISTING DATE -1200 10 APRIL 1982***
   32:                          
   33:                          ;****************************************
   34:                          ;* THIS SOFTWARE IS FURNISHED FOR USE IN*
   35:                          ;* THE ABOVE LISTED MACHINES ONLY.      *
   36:                          ;*                                      *
   37:                          ;* COPIES THEREOF MAY NOT BE PROVIDED   *
   38:                          ;* OR MADE AVAILABLE FOR USE ON ANY     *
   39:                          ;* SYSTEM.                              *
   40:                          ;*                                      *
   41:                          ;* THE INFORMATION IN THIS DOCUMENT IS  *
   42:                          ;* SUBJECT TO CHANGE WITHOUT NOTICE.    *
   43:                          ;*                                      *
   44:                          ;* NO RESPONSIBILITY IS ASSUMED FOR     *
   45:                          ;* RELIABILITY OF THIS SOFTWARE.  RSR   *
   46:                          ;*                                      *
   47:                          ;****************************************
   48:                          
 FILE: basic.a65
 FILE: declare.a65
    1:                          
    2:                          ADDPRC	=1
    3:                          ROMLOC	=$A000          ;VIC-40 BASIC ROM
    4:                          LINLEN	=40             ;VIC SCREEN SIZE ?WHY?
    5:                          BUFLEN	=89             ;VIC BUFFER
    6:                          BUFPAG	=2
    7:                          BUF	=512
    8:                          STKEND	=507
    9:                          CLMWID	=10             ;PRINT WINDOW 10 CHARS
   10:                          PI	=255
   11:                          NUMLEV	=23
   12:                          STRSIZ	=3
   13:                          BLANK0	.org @+3           ;6510 REGISTER AREA
   14:                          ADRAY1	.org @+2           ;CONVERT FLOAT->INTEGER
   15:                          ADRAY2	.org @+2           ;CONVERT INTEGER->FLOAT
   16:                          INTEGR
   17:                          CHARAC	.org @+1
   18:                          ENDCHR	.org @+1
   19:                          TRMPOS	.org @+1
   20:                          VERCK	.org @+1
   21:                          COUNT	.org @+1
   22:                          DIMFLG	.org @+1
   23:                          VALTYP	.org @+1
   24:                          INTFLG	.org @+1
   25:                          GARBFL
   26:                          DORES	.org @+1
   27:                          SUBFLG	.org @+1
   28:                          INPFLG	.org @+1
   29:                          DOMASK
   30:                          TANSGN	.org @+1
   31:                          CHANNL	.org @+1
   32:                          POKER
   33:                          LINNUM	.org @+2
   34:                          TEMPPT	.org @+1
   35:                          LASTPT	.org @+2
   36:                          TEMPST	.org @+9
   37:                          INDEX
   38:                          INDEX1	.org @+2
   39:                          INDEX2	.org @+2
   40:                          RESHO	.org @+1
   41:                          RESMOH	.org @+1
   42:                          ADDEND
   43:                          RESMO	.org @+1
   44:                          RESLO	.org @+1
   45:                          	.org @+1
   46:                          TXTTAB	.org @+2
   47:                          VARTAB	.org @+2
   48:                          ARYTAB	.org @+2
   49:                          STREND	.org @+2
   50:                          FRETOP	.org @+2
   51:                          FRESPC	.org @+2
   52:                          MEMSIZ	.org @+2
   53:                          CURLIN	.org @+2
   54:                          OLDLIN	.org @+2
   55:                          OLDTXT	.org @+2
   56:                          DATLIN	.org @+2
   57:                          DATPTR	.org @+2
   58:                          INPPTR	.org @+2
   59:                          VARNAM	.org @+2
   60:                          FDECPT	
   61:                          VARPNT	.org @+2
   62:                          LSTPNT
   63:                          ANDMSK
   64:                          FORPNT	.org @+2
   65:                          EORMSK	=FORPNT+1
   66:                          VARTXT
   67:                          OPPTR	.org @+2
   68:                          OPMASK	.org @+1
   69:                          GRBPNT
   70:                          TEMPF3
   71:                          DEFPNT	.org @+2
   72:                          DSCPNT	.org @+2
   73:                          	.org @+1
   74:                          FOUR6	.org @+1
   75:                          JMPER	.org @+1
   76:                          SIZE	.org @+1
   77:                          OLDOV	.org @+1
   78:                          TEMPF1	.org @+1
   79:                          ARYPNT
   80:                          HIGHDS	.org @+2
   81:                          HIGHTR	.org @+2
   82:                          TEMPF2
   83:                          	.org @+1
   84:                          DECCNT
   85:                          LOWDS	.org @+2
   86:                          GRBTOP
   87:                          DPTFLG
   88:                          LOWTR	.org @+1
   89:                          EXPSGN	.org @+1
   90:                          TENEXP	=LOWDS+1
   91:                          EPSGN	=LOWTR+1
   92:                          DSCTMP
   93:                          FAC
   94:                          FACEXP	.org @+1
   95:                          FACHO	.org @+1
   96:                          FACMOH	.org @+1
   97:                          INDICE
   98:                          FACMO	.org @+1
   99:                          FACLO	.org @+1
  100:                          FACSGN	.org @+1
  101:                          DEGREE
  102:                          SGNFLG	.org @+1
  103:                          BITS	.org @+1
  104:                          ARGEXP	.org @+1
  105:                          ARGHO	.org @+1
  106:                          ARGMOH	.org @+1
  107:                          ARGMO	.org @+1
  108:                          ARGLO	.org @+1
  109:                          ARGSGN	.org @+1
  110:                          STRNGI
  111:                          ARISGN	.org @+1
  112:                          FACOV	.org @+1
  113:                          BUFPTR
  114:                          STRNG2
  115:                          POLYPT
  116:                          CURTOL
  117:                          FBUFPT	.org @+2
  118:                          CHRGET	.org @+6
  119:                          CHRGOT	.org @+1
  120:                          TXTPTR	.org @+6
  121:                          QNUM	.org @+10
  122:                          CHRRTS	.org @+1
  123:                          RNDX	.org @+5
  124:                          	.org 255
  125:                          LOFBUF	.org @+1
  126:                          FBUFFR	.org @+1
  127:                          STRNG1	=ARISGN
  128:                          ;
  129:                          	.org $0300         ;BASIC INDIRECTS
  130:                          IERROR	.org @+2           ;INDIRECT ERROR (OUTPUT ERROR IN .X)
  131:                          IMAIN	.org @+2           ;INDIRECT MAIN (SYSTEM DIRECT LOOP)
  132:                          ICRNCH	.org @+2           ;INDIRECT CRUNCH (TOKENIZATION ROUTINE)
  133:                          IQPLOP	.org @+2           ;INDIRECT LIST (CHAR LIST)
  134:                          IGONE	.org @+2           ;INDIRECT GONE (CHAR DISPATCH)
  135:                          IEVAL	.org @+2           ;INDIRECT EVAL (SYMBOL EVALUATION)
  136:                          ;TEMP STORAGE UNTILL SYSTEM INTERGRATION
  137:                          ; SYS 6502 REGS
  138:                          SAREG	.org @+1           ;.A REG
  139:                          SXREG	.org @+1           ;.X REG
  140:                          SYREG	.org @+1           ;.Y REG
  141:                          SPREG	.org @+1           ;.P REG
  142:                          USRPOK	.org @+3           ;USER FUNCTION DISPATCH
  143:                          	.org $0300+20      ;SYSTEM INDIRECTS FOLLOW
  144:                          
 FILE: basic.a65
 FILE: tokens.a65
    1:                          
    2:                          	.org ROMLOC
    3: 0000 A000  94 E3         	.WORD INIT       ;C000 HARD RESET
    4: 0002 A002  7B E3         	.WORD PANIC      ;C000 SOFT RESET
    5: 0004 A004  43 42 4D ...  	.BYTE "CBMBASIC"
    6: 000C A00C  30 A8         STMDSP	.WORD END-1
    7: 000E A00E  41 A7         	.WORD FOR-1
    8: 0010 A010  1D AD         	.WORD NEXT-1
    9: 0012 A012  F7 A8         	.WORD DATA-1
   10: 0014 A014  A4 AB         	.WORD INPUTN-1
   11: 0016 A016  BE AB         	.WORD INPUT-1
   12: 0018 A018  80 B0         	.WORD DIM-1
   13: 001A A01A  05 AC         	.WORD READ-1
   14: 001C A01C  A4 A9         	.WORD LET-1
   15: 001E A01E  9F A8         	.WORD GOTO-1
   16: 0020 A020  70 A8         	.WORD RUN-1
   17: 0022 A022  27 A9         	.WORD IF-1
   18: 0024 A024  1C A8         	.WORD RESTOR-1
   19: 0026 A026  82 A8         	.WORD GOSUB-1
   20: 0028 A028  D1 A8         	.WORD RETURN-1
   21: 002A A02A  3A A9         	.WORD REM-1
   22: 002C A02C  2E A8         	.WORD STOP-1
   23: 002E A02E  4A A9         	.WORD ONGOTO-1
   24: 0030 A030  2C B8         	.WORD FNWAIT-1
   25: 0032 A032  67 E1         	.WORD CLOAD-1
   26: 0034 A034  55 E1         	.WORD CSAVE-1
   27: 0036 A036  64 E1         	.WORD CVERF-1
   28: 0038 A038  B2 B3         	.WORD DEF-1
   29: 003A A03A  23 B8         	.WORD POKE-1
   30: 003C A03C  7F AA         	.WORD PRINTN-1
   31: 003E A03E  9F AA         	.WORD PRINT-1
   32: 0040 A040  56 A8         	.WORD CONT-1
   33: 0042 A042  9B A6         	.WORD LIST-1
   34: 0044 A044  5D A6         	.WORD CLEAR-1
   35: 0046 A046  85 AA         	.WORD CMD-1
   36: 0048 A048  29 E1         	.WORD CSYS-1 
   37: 004A A04A  BD E1         	.WORD COPEN-1
   38: 004C A04C  C6 E1         	.WORD CCLOS-1
   39: 004E A04E  7A AB         	.WORD GET-1
   40: 0050 A050  41 A6         	.WORD SCRATH-1
   41: 0052 A052  39 BC         FUNDSP	.WORD SGN
   42: 0054 A054  CC BC         	.WORD INT
   43: 0056 A056  58 BC         	.WORD ABS
   44: 0058 A058  10 03         USRLOC	.WORD USRPOK
   45: 005A A05A  7D B3         	.WORD FRE
   46: 005C A05C  9E B3         	.WORD POS
   47: 005E A05E  71 BF         	.WORD SQR
   48: 0060 A060  97 E0         	.WORD RND
   49: 0062 A062  EA B9         	.WORD LOG
   50: 0064 A064  ED BF         	.WORD EXP
   51: 0066 A066  64 E2         	.WORD COS
   52: 0068 A068  6B E2         	.WORD SIN
   53: 006A A06A  B4 E2         	.WORD TAN
   54: 006C A06C  0E E3         	.WORD ATN
   55: 006E A06E  0D B8         	.WORD PEEK
   56: 0070 A070  7C B7         	.WORD LEN
   57: 0072 A072  65 B4         	.WORD STRD
   58: 0074 A074  AD B7         	.WORD VAL
   59: 0076 A076  8B B7         	.WORD ASC
   60: 0078 A078  EC B6         	.WORD CHRD
   61: 007A A07A  00 B7         	.WORD LEFTD
   62: 007C A07C  2C B7         	.WORD RIGHTD
   63: 007E A07E  37 B7         	.WORD MIDD
   64: 0080 A080  79            OPTAB	.BYTE 121
   65: 0081 A081  69 B8         	.WORD FADDT-1
   66: 0083 A083  79            	.BYTE 121
   67: 0084 A084  52 B8         	.WORD FSUBT-1
   68: 0086 A086  7B            	.BYTE 123
   69: 0087 A087  2A BA         	.WORD FMULTT-1
   70: 0089 A089  7B            	.BYTE 123
   71: 008A A08A  11 BB         	.WORD FDIVT-1
   72: 008C A08C  7F            	.BYTE 127
   73: 008D A08D  7A BF         	.WORD FPWRT-1
   74: 008F A08F  50            	.BYTE 80
   75: 0090 A090  E8 AF         	.WORD ANDOP-1
   76: 0092 A092  46            	.BYTE 70
   77: 0093 A093  E5 AF         	.WORD OROP-1
   78: 0095 A095  7D            NEGTAB	.BYTE 125
   79: 0096 A096  B3 BF         	.WORD NEGOP-1 
   80: 0098 A098  5A            NOTTAB	.BYTE 90
   81: 0099 A099  D3 AE         	.WORD NOTOP-1
   82: 009B A09B  64            PTDORL	.BYTE 100
   83: 009C A09C  15 B0         	.WORD DOREL-1
   84:                          Q=128-1
   85: 009E A09E  45 4E C4      RESLST	.BYTE "EN",$C4
   86:                          ENDTK	=$80
   87: 00A1 A0A1  46 4F D2      	.BYTE "FO",$D2
   88:                          FORTK	=$81
   89: 00A4 A0A4  4E 45 58      	.BYTE "NEX",$D4
   90: 00A8 A0A8  44 41 54      	.BYTE "DAT",$C1
   91:                          DATATK	=$83
   92: 00AC A0AC  49 4E 50      	.BYTE "INPUT",$A3
   93: 00B2 A0B2  49 4E 50      	.BYTE "INPU",$D4
   94: 00B7 A0B7  44 49 CD      	.BYTE "DI",$CD
   95: 00BA A0BA  52 45 41      	.BYTE "REA",$C4
   96: 00BE A0BE  4C 45 D4      	.BYTE "LE",$D4
   97: 00C1 A0C1  47 4F 54      	.BYTE "GOT",$CF
   98:                          GOTOTK	=$89
   99: 00C5 A0C5  52 55 CE      	.BYTE "RU",$CE
  100: 00C8 A0C8  49 C6         	.BYTE "I",$C6
  101: 00CA A0CA  52 45 53 ...  	.BYTE "RESTOR",$C5
  102: 00D1 A0D1  47 4F 53      	.BYTE "GOSU",$C2
  103:                          GOSUTK	=$8D
  104: 00D6 A0D6  52 45 54      	.BYTE "RETUR",$CE
  105: 00DC A0DC  52 45 CD      	.BYTE "RE",$CD
  106:                          REMTK	=$8F
  107: 00DF A0DF  53 54 4F      	.BYTE "STO",$D0
  108: 00E3 A0E3  4F CE         	.BYTE "O",$CE
  109: 00E5 A0E5  57 41 49      	.BYTE "WAI",$D4
  110: 00E9 A0E9  4C 4F 41      	.BYTE "LOA",$C4
  111: 00ED A0ED  53 41 56      	.BYTE "SAV",$C5
  112: 00F1 A0F1  56 45 52      	.BYTE "VERIF",$D9
  113: 00F7 A0F7  44 45 C6      	.BYTE "DE",$C6
  114: 00FA A0FA  50 4F 4B      	.BYTE "POK",$C5
  115: 00FE A0FE  50 52 49      	.BYTE "PRINT",$A3
  116: 0104 A104  50 52 49      	.BYTE "PRIN",$D4
  117:                          PRINTK	=$99
  118: 0109 A109  43 4F 4E      	.BYTE "CON",$D4
  119: 010D A10D  4C 49 53      	.BYTE "LIS",$D4
  120: 0111 A111  43 4C D2      	.BYTE "CL",$D2
  121: 0114 A114  43 4D C4      	.BYTE "CM",$C4
  122: 0117 A117  53 59 D3      	.BYTE "SY",$D3
  123: 011A A11A  4F 50 45      	.BYTE "OPE",$CE
  124: 011E A11E  43 4C 4F      	.BYTE "CLOS",$C5
  125: 0123 A123  47 45 D4      	.BYTE "GE",$D4
  126: 0126 A126  4E 45 D7      	.BYTE "NE",$D7
  127:                          SCRATK	=$A2
  128:                          
 FILE: basic.a65
 FILE: token2.a65
    1:                          
    2: 0129 A129  54 41 42      	.BYTE "TAB",$A8
    3:                          TABTK	=$A3
    4: 012D A12D  54 CF         	.BYTE "T",$CF
    5:                          TOTK	=$A4
    6: 012F A12F  46 CE         	.BYTE "F",$CE
    7:                          FNTK	=$A5
    8: 0131 A131  53 50 43      	.BYTE "SPC",$A8
    9:                          SPCTK	=$A6
   10: 0135 A135  54 48 45      	.BYTE "THE",$CE
   11:                          THENTK	=$A7
   12: 0139 A139  4E 4F D4      	.BYTE "NO",$D4
   13:                          NOTTK	=$A8
   14: 013C A13C  53 54 45      	.BYTE "STE",$D0
   15:                          STEPTK	=$A9
   16: 0140 A140  AB            	.BYTE $AB
   17:                          PLUSTK	=$AA
   18: 0141 A141  AD            	.BYTE $AD
   19:                          MINUTK	=$AB
   20: 0142 A142  AA            	.BYTE $AA
   21: 0143 A143  AF            	.BYTE $AF
   22: 0144 A144  DE            	.BYTE $DE
   23: 0145 A145  41 4E C4      	.BYTE "AN",$C4
   24: 0148 A148  4F D2         	.BYTE "O",$D2
   25: 014A A14A  BE            	.BYTE 190
   26:                          GREATK	=$B1
   27: 014B A14B  BD            	.BYTE $BD
   28:                          EQULTK	=$B2
   29: 014C A14C  BC            	.BYTE 188
   30:                          LESSTK	=$B3
   31: 014D A14D  53 47 CE      	.BYTE "SG",$CE
   32:                          ONEFUN	=$B4
   33: 0150 A150  49 4E D4      	.BYTE "IN",$D4
   34: 0153 A153  41 42 D3      	.BYTE "AB",$D3
   35: 0156 A156  55 53 D2      	.BYTE "US",$D2
   36: 0159 A159  46 52 C5      	.BYTE "FR",$C5
   37: 015C A15C  50 4F D3      	.BYTE "PO",$D3
   38: 015F A15F  53 51 D2      	.BYTE "SQ",$D2
   39: 0162 A162  52 4E C4      	.BYTE "RN",$C4
   40: 0165 A165  4C 4F C7      	.BYTE "LO",$C7
   41: 0168 A168  45 58 D0      	.BYTE "EX",$D0
   42: 016B A16B  43 4F D3      	.BYTE "CO",$D3
   43: 016E A16E  53 49 CE      	.BYTE "SI",$CE
   44: 0171 A171  54 41 CE      	.BYTE "TA",$CE
   45: 0174 A174  41 54 CE      	.BYTE "AT",$CE
   46: 0177 A177  50 45 45      	.BYTE "PEE",$CB
   47: 017B A17B  4C 45 CE      	.BYTE "LE",$CE
   48: 017E A17E  53 54 52      	.BYTE "STR",$A4
   49: 0182 A182  56 41 CC      	.BYTE "VA",$CC
   50: 0185 A185  41 53 C3      	.BYTE "AS",$C3
   51: 0188 A188  43 48 52      	.BYTE "CHR",$A4
   52:                          LASNUM	=$C7
   53: 018C A18C  4C 45 46      	.BYTE "LEFT",$A4
   54: 0191 A191  52 49 47      	.BYTE "RIGHT",$A4
   55: 0197 A197  4D 49 44      	.BYTE "MID",$A4
   56: 019B A19B  47 CF         	.BYTE "G",$CF
   57:                          GOTK	=$CB
   58: 019D A19D  00            	.BYTE 0
   59:                          
   60: 019E A19E  54 4F 4F ...  ERR01	.BYTE "TOO MANY FILE",$D3
   61: 01AC A1AC  46 49 4C ...  ERR02	.BYTE "FILE OPE",$CE
   62: 01B5 A1B5  46 49 4C ...  ERR03	.BYTE "FILE NOT OPE",$CE
   63: 01C2 A1C2  46 49 4C ...  ERR04	.BYTE "FILE NOT FOUN",$C4
   64: 01D0 A1D0  44 45 56 ...  ERR05	.BYTE "DEVICE NOT PRESEN",$D4
   65: 01E2 A1E2  4E 4F 54 ...  ERR06	.BYTE "NOT INPUT FIL",$C5
   66: 01F0 A1F0  4E 4F 54 ...  ERR07	.BYTE "NOT OUTPUT FIL",$C5
   67: 01FF A1FF  4D 49 53 ...  ERR08	.BYTE "MISSING FILE NAM",$C5
   68: 0210 A210  49 4C 4C ...  ERR09	.BYTE "ILLEGAL DEVICE NUMBE",$D2
   69: 0225 A225  4E 45 58 ...  ERR10	.BYTE "NEXT WITHOUT FO",$D2
   70:                          ERRNF	=10
   71: 0235 A235  53 59 4E      ERR11	.BYTE "SYNTA",$D8
   72:                          ERRSN	=11
   73: 023B A23B  52 45 54 ...  ERR12	.BYTE "RETURN WITHOUT GOSU",$C2
   74:                          ERRRG	=12
   75: 024F A24F  4F 55 54 ...  ERR13	.BYTE "OUT OF DAT",$C1
   76:                          ERROD	=13
   77: 025A A25A  49 4C 4C ...  ERR14	.BYTE "ILLEGAL QUANTIT",$D9
   78:                          ERRFC	=14
   79: 026A A26A  4F 56 45 ...  ERR15	.BYTE "OVERFLO",$D7
   80:                          ERROV	=15
   81: 0272 A272  4F 55 54 ...  ERR16	.BYTE "OUT OF MEMOR",$D9
   82:                          ERROM	=16
   83: 027F A27F  55 4E 44      ERR17	.BYTE "UNDEF",$27
   84: 0285 A285  44 20 53 ...  	.BYTE "D STATEMEN",$D4
   85:                          ERRUS	=17
   86: 0290 A290  42 41 44 ...  ERR18	.BYTE "BAD SUBSCRIP",$D4
   87:                          ERRBS	=18
   88: 029D A29D  52 45 44 ...  ERR19	.BYTE "REDIM",$27,"D ARRA",$D9
   89:                          ERRDD	=19
   90: 02AA A2AA  44 49 56 ...  ERR20	.BYTE "DIVISION BY ZER",$CF
   91:                          ERRDVO	=20
   92: 02BA A2BA  49 4C 4C ...  ERR21	.BYTE "ILLEGAL DIREC",$D4
   93:                          ERRID	=21
   94: 02C8 A2C8  54 59 50 ...  ERR22	.BYTE "TYPE MISMATC",$C8
   95:                          ERRTM	=22
   96: 02D5 A2D5  53 54 52 ...  ERR23	.BYTE "STRING TOO LON",$C7
   97:                          ERRLS	=23
   98: 02E4 A2E4  46 49 4C ...  ERR24	.BYTE "FILE DAT",$C1
   99:                          ERRBD	=24
  100: 02ED A2ED  46 4F 52 ...  ERR25	.BYTE "FORMULA TOO COMPLE",$D8
  101:                          ERRST	=25
  102: 0300 A300  43 41 4E ...  ERR26	.BYTE "CAN",$27,"T CONTINU",$C5
  103:                          ERRCN	=26
  104: 030E A30E  55 4E 44 ...  ERR27	.BYTE "UNDEF",$27,"D FUNCTIO",$CE
  105:                          ERRUF	=27
  106: 031E A31E  56 45 52      ERR28	.BYTE "VERIF",$D9
  107:                          ERVFY	=28
  108: 0324 A324  4C 4F 41      ERR29	.BYTE "LOA",$C4
  109:                          ERLOAD	=29
  110:                          
  111:                          ; TABLE TO TRANSLATE ERROR MESSAGE #
  112:                          ; TO ADDRESS OF STRING CONTAINING MESSAGE
  113:                          ;
  114: 0328 A328  9E A1         ERRTAB	.WORD ERR01
  115: 032A A32A  AC A1         	.WORD ERR02
  116: 032C A32C  B5 A1         	.WORD ERR03
  117: 032E A32E  C2 A1         	.WORD ERR04
  118: 0330 A330  D0 A1         	.WORD ERR05
  119: 0332 A332  E2 A1         	.WORD ERR06
  120: 0334 A334  F0 A1         	.WORD ERR07
  121: 0336 A336  FF A1         	.WORD ERR08
  122: 0338 A338  10 A2         	.WORD ERR09
  123: 033A A33A  25 A2         	.WORD ERR10
  124: 033C A33C  35 A2         	.WORD ERR11
  125: 033E A33E  3B A2         	.WORD ERR12
  126: 0340 A340  4F A2         	.WORD ERR13
  127: 0342 A342  5A A2         	.WORD ERR14
  128: 0344 A344  6A A2         	.WORD ERR15
  129: 0346 A346  72 A2         	.WORD ERR16
  130: 0348 A348  7F A2         	.WORD ERR17
  131: 034A A34A  90 A2         	.WORD ERR18
  132: 034C A34C  9D A2         	.WORD ERR19
  133: 034E A34E  AA A2         	.WORD ERR20
  134: 0350 A350  BA A2         	.WORD ERR21
  135: 0352 A352  C8 A2         	.WORD ERR22
  136: 0354 A354  D5 A2         	.WORD ERR23
  137: 0356 A356  E4 A2         	.WORD ERR24
  138: 0358 A358  ED A2         	.WORD ERR25
  139: 035A A35A  00 A3         	.WORD ERR26
  140: 035C A35C  0E A3         	.WORD ERR27
  141: 035E A35E  1E A3         	.WORD ERR28
  142: 0360 A360  24 A3         	.WORD ERR29
  143: 0362 A362  83 A3         	.WORD ERR30
  144:                          
  145: 0364 A364  0D 4F 4B      OKMSG	.BYTE $D,"OK",$D,$0
  146: 0369 A369  20 20 45 ...  ERR	.BYTE $20," ERROR",0 ;ADD A SPACE FOR VIC-40 SCREEN
  147: 0371 A371  20 49 4E      INTXT	.BYTE " IN ",0
  148: 0376 A376  0D 0A 52 ...  REDDY	.BYTE $D,$A,"READY.",$D,$A,0
  149:                          ERBRK	=30
  150: 0381 A381  0D 0A         BRKTXT	.BYTE $D,$A
  151: 0383 A383  42 52 45 ...  ERR30	.BYTE "BREAK",0,$A0 ;SHIFTED SPACE
  152:                          
  153:                          FORSIZ	=$12
  154: 038A A38A  BA            FNDFOR	TSX
  155: 038B A38B  E8            	INX
  156: 038C A38C  E8            	INX
  157: 038D A38D  E8            	INX
  158: 038E A38E  E8            	INX
  159: 038F A38F  BD 01 01      FFLOOP	LDA 257,X
  160: 0392 A392  C9 81         	CMP #FORTK
  161: 0394 A394  D0 21         	BNE FFRTS
  162: 0396 A396  A5 4A         	LDA FORPNT+1
  163: 0398 A398  D0 0A         	BNE CMPFOR
  164: 039A A39A  BD 02 01      	LDA 258,X
  165: 039D A39D  85 49         	STA FORPNT
  166: 039F A39F  BD 03 01      	LDA 259,X
  167: 03A2 A3A2  85 4A         	STA FORPNT+1
  168: 03A4 A3A4  DD 03 01      CMPFOR	CMP 259,X
  169: 03A7 A3A7  D0 07         	BNE ADDFRS
  170: 03A9 A3A9  A5 49         	LDA FORPNT
  171: 03AB A3AB  DD 02 01      	CMP 258,X
  172: 03AE A3AE  F0 07         	BEQ FFRTS
  173: 03B0 A3B0  8A            ADDFRS	TXA 
  174: 03B1 A3B1  18            	CLC
  175: 03B2 A3B2  69 12         	ADC #FORSIZ
  176: 03B4 A3B4  AA            	TAX
  177: 03B5 A3B5  D0 D8         	BNE FFLOOP
  178: 03B7 A3B7  60            FFRTS	RTS
  179: 03B8 A3B8  20 08 A4      BLTU	JSR REASON
  180: 03BB A3BB  85 31         	STA STREND
  181: 03BD A3BD  84 32         	STY STREND+1
  182: 03BF A3BF  38            BLTUC	SEC
  183: 03C0 A3C0  A5 5A         	LDA HIGHTR
  184: 03C2 A3C2  E5 5F         	SBC LOWTR
  185: 03C4 A3C4  85 22         	STA INDEX
  186: 03C6 A3C6  A8            	TAY
  187: 03C7 A3C7  A5 5B         	LDA HIGHTR+1
  188: 03C9 A3C9  E5 60         	SBC LOWTR+1
  189: 03CB A3CB  AA            	TAX
  190: 03CC A3CC  E8            	INX
  191: 03CD A3CD  98            	TYA
  192: 03CE A3CE  F0 23         	BEQ DECBLT
  193: 03D0 A3D0  A5 5A         	LDA HIGHTR
  194: 03D2 A3D2  38            	SEC
  195: 03D3 A3D3  E5 22         	SBC INDEX
  196: 03D5 A3D5  85 5A         	STA HIGHTR
  197: 03D7 A3D7  B0 03         	BCS BLT1
  198: 03D9 A3D9  C6 5B         	DEC HIGHTR+1
  199: 03DB A3DB  38            	SEC
  200: 03DC A3DC  A5 58         BLT1	LDA HIGHDS
  201: 03DE A3DE  E5 22         	SBC INDEX
  202: 03E0 A3E0  85 58         	STA HIGHDS
  203: 03E2 A3E2  B0 08         	BCS MOREN1
  204: 03E4 A3E4  C6 59         	DEC HIGHDS+1
  205: 03E6 A3E6  90 04         	BCC MOREN1
  206: 03E8 A3E8  B1 5A         BLTLP	LDA (HIGHTR),Y
  207: 03EA A3EA  91 58         	STA (HIGHDS),Y
  208: 03EC A3EC  88            MOREN1	DEY
  209: 03ED A3ED  D0 F9         	BNE BLTLP
  210: 03EF A3EF  B1 5A         	LDA (HIGHTR),Y
  211: 03F1 A3F1  91 58         	STA (HIGHDS),Y
  212: 03F3 A3F3  C6 5B         DECBLT	DEC HIGHTR+1
  213: 03F5 A3F5  C6 59         	DEC HIGHDS+1
  214: 03F7 A3F7  CA            	DEX
  215: 03F8 A3F8  D0 F2         	BNE MOREN1
  216: 03FA A3FA  60            	RTS
  217: 03FB A3FB  0A            GETSTK	ASL
  218: 03FC A3FC  69 3E         	ADC #NUMLEV+NUMLEV+16
  219: 03FE A3FE  B0 35         	BCS OMERR
  220: 0400 A400  85 22         	STA INDEX
  221: 0402 A402  BA            	TSX
  222: 0403 A403  E4 22         	CPX INDEX
  223: 0405 A405  90 2E         	BCC OMERR
  224: 0407 A407  60            	RTS
  225: 0408 A408  C4 34         REASON	CPY FRETOP+1
  226: 040A A40A  90 28         	BCC REARTS
  227: 040C A40C  D0 04         	BNE TRYMOR
  228: 040E A40E  C5 33         	CMP FRETOP
  229: 0410 A410  90 22         	BCC REARTS
  230: 0412 A412  48            TRYMOR	PHA
  231: 0413 A413  A2 09         	LDX #8+ADDPRC
  232: 0415 A415  98            	TYA
  233: 0416 A416  48            REASAV	PHA
  234: 0417 A417  B5 57         	LDA HIGHDS-1,X
  235: 0419 A419  CA            	DEX
  236: 041A A41A  10 FA         	BPL REASAV
  237: 041C A41C  20 26 B5      	JSR GARBA2
  238: 041F A41F  A2 F7         	LDX #248-ADDPRC
  239: 0421 A421  68            REASTO	PLA
  240: 0422 A422  95 61         	STA HIGHDS+8+ADDPRC,X
  241: 0424 A424  E8            	INX
  242: 0425 A425  30 FA         	BMI REASTO
  243: 0427 A427  68            	PLA
  244: 0428 A428  A8            	TAY
  245: 0429 A429  68            	PLA
  246: 042A A42A  C4 34         	CPY FRETOP+1
  247: 042C A42C  90 06         	BCC REARTS
  248: 042E A42E  D0 05         	BNE OMERR
  249: 0430 A430  C5 33         	CMP FRETOP
  250: 0432 A432  B0 01         	BCS OMERR
  251: 0434 A434  60            REARTS	RTS
  252:                          
 FILE: basic.a65
 FILE: code1.a65
    1:                          
    2: 0435 A435  A2 10         OMERR	LDX #ERROM
    3: 0437 A437  6C 00 03      ERROR	JMP (IERROR)
    4: 043A A43A  8A            NERROX	TXA
    5: 043B A43B  0A            	ASL
    6: 043C A43C  AA            	TAX
    7: 043D A43D  BD 26 A3      	LDA ERRTAB-2,X
    8: 0440 A440  85 22         	STA INDEX1
    9: 0442 A442  BD 27 A3      	LDA ERRTAB-1,X
   10: 0445 A445  85 23         	STA INDEX1+1
   11: 0447 A447  20 CC FF      	JSR CLSCHN
   12: 044A A44A  A9 00         	LDA #0
   13: 044C A44C  85 13         	STA CHANNL
   14: 044E A44E  20 D7 AA      ERRCRD	JSR CRDO
   15: 0451 A451  20 45 AB      	JSR OUTQST
   16: 0454 A454  A0 00         	LDY #0
   17: 0456 A456  B1 22         GETERR	LDA (INDEX1),Y
   18: 0458 A458  48            	PHA
   19: 0459 A459  29 7F         	AND #127
   20: 045B A45B  20 47 AB      	JSR OUTDO
   21: 045E A45E  C8            	INY
   22: 045F A45F  68            	PLA
   23: 0460 A460  10 F4         	BPL GETERR
   24: 0462 A462  20 7A A6      	JSR STKINI
   25: 0465 A465  A9 69         	LDA #<ERR
   26: 0467 A467  A0 A3         	LDY #>ERR
   27: 0469 A469  20 1E AB      ERRFIN	JSR STROUT
   28: 046C A46C  A4 3A         	LDY CURLIN+1
   29: 046E A46E  C8            	INY
   30: 046F A46F  F0 03         	BEQ READYX
   31: 0471 A471  20 C2 BD      	JSR INPRT
   32:                          
   33: 0474 A474  A9 76         READYX	LDA #<REDDY
   34: 0476 A476  A0 A3         	LDY #>REDDY
   35: 0478 A478  20 1E AB      	JSR STROUT
   36: 047B A47B  A9 80         	LDA #$80        ;DIRECT MESSAGES ON
   37: 047D A47D  20 90 FF      	JSR SETMSG      ;FROM KERNAL
   38:                          
   39: 0480 A480  6C 02 03      MAIN	JMP (IMAIN)
   40: 0483 A483  20 60 A5      NMAIN	JSR INLIN
   41: 0486 A486  86 7A         	STX TXTPTR
   42: 0488 A488  84 7B         	STY TXTPTR+1
   43: 048A A48A  20 73 00      	JSR CHRGET
   44: 048D A48D  AA            	TAX
   45: 048E A48E  F0 F0         	BEQ MAIN
   46: 0490 A490  A2 FF         	LDX #255
   47: 0492 A492  86 3A         	STX CURLIN+1
   48: 0494 A494  90 06         	BCC MAIN1
   49: 0496 A496  20 79 A5      	JSR CRUNCH
   50: 0499 A499  4C E1 A7      	JMP GONE
   51: 049C A49C  20 6B A9      MAIN1	JSR LINGET
   52: 049F A49F  20 79 A5      	JSR CRUNCH
   53: 04A2 A4A2  84 0B         	STY COUNT
   54: 04A4 A4A4  20 13 A6      	JSR FNDLIN
   55: 04A7 A4A7  90 44         	BCC NODEL
   56: 04A9 A4A9  A0 01         	LDY #1
   57: 04AB A4AB  B1 5F         	LDA (LOWTR),Y
   58: 04AD A4AD  85 23         	STA INDEX1+1
   59: 04AF A4AF  A5 2D         	LDA VARTAB
   60: 04B1 A4B1  85 22         	STA INDEX1
   61: 04B3 A4B3  A5 60         	LDA LOWTR+1
   62: 04B5 A4B5  85 25         	STA INDEX2+1
   63: 04B7 A4B7  A5 5F         	LDA LOWTR
   64: 04B9 A4B9  88            	DEY
   65: 04BA A4BA  F1 5F         	SBC (LOWTR),Y 
   66: 04BC A4BC  18            	CLC
   67: 04BD A4BD  65 2D         	ADC VARTAB
   68: 04BF A4BF  85 2D         	STA VARTAB
   69: 04C1 A4C1  85 24         	STA INDEX2
   70: 04C3 A4C3  A5 2E         	LDA VARTAB+1
   71: 04C5 A4C5  69 FF         	ADC #255
   72: 04C7 A4C7  85 2E         	STA VARTAB+1
   73: 04C9 A4C9  E5 60         	SBC LOWTR+1
   74: 04CB A4CB  AA            	TAX
   75: 04CC A4CC  38            	SEC
   76: 04CD A4CD  A5 5F         	LDA LOWTR
   77: 04CF A4CF  E5 2D         	SBC VARTAB
   78: 04D1 A4D1  A8            	TAY
   79: 04D2 A4D2  B0 03         	BCS QDECT1
   80: 04D4 A4D4  E8            	INX
   81: 04D5 A4D5  C6 25         	DEC INDEX2+1
   82: 04D7 A4D7  18            QDECT1	CLC
   83: 04D8 A4D8  65 22         	ADC INDEX1
   84: 04DA A4DA  90 03         	BCC MLOOP
   85: 04DC A4DC  C6 23         	DEC INDEX1+1
   86: 04DE A4DE  18            	CLC
   87: 04DF A4DF  B1 22         MLOOP	LDA (INDEX1),Y
   88: 04E1 A4E1  91 24         	STA (INDEX2),Y
   89: 04E3 A4E3  C8            	INY 
   90: 04E4 A4E4  D0 F9         	BNE MLOOP
   91: 04E6 A4E6  E6 23         	INC INDEX1+1
   92: 04E8 A4E8  E6 25         	INC INDEX2+1
   93: 04EA A4EA  CA            	DEX
   94: 04EB A4EB  D0 F2         	BNE MLOOP
   95: 04ED A4ED  20 59 A6      NODEL	JSR RUNC
   96: 04F0 A4F0  20 33 A5      	JSR LNKPRG
   97: 04F3 A4F3  AD 00 02      	LDA BUF
   98: 04F6 A4F6  F0 88         	BEQ MAIN
   99: 04F8 A4F8  18            	CLC
  100: 04F9 A4F9  A5 2D         	LDA VARTAB
  101: 04FB A4FB  85 5A         	STA HIGHTR 
  102: 04FD A4FD  65 0B         	ADC COUNT
  103: 04FF A4FF  85 58         	STA HIGHDS
  104: 0501 A501  A4 2E         	LDY VARTAB+1
  105: 0503 A503  84 5B         	STY HIGHTR+1
  106: 0505 A505  90 01         	BCC NODELC
  107: 0507 A507  C8            	INY
  108: 0508 A508  84 59         NODELC	STY HIGHDS+1
  109: 050A A50A  20 B8 A3      	JSR BLTU
  110: 050D A50D  A5 14         	LDA LINNUM
  111: 050F A50F  A4 15         	LDY LINNUM+1
  112: 0511 A511  8D FE 01      	STA BUF-2
  113: 0514 A514  8C FF 01      	STY BUF-1
  114: 0517 A517  A5 31         	LDA STREND
  115: 0519 A519  A4 32         	LDY STREND+1
  116: 051B A51B  85 2D         	STA VARTAB
  117: 051D A51D  84 2E         	STY VARTAB+1
  118: 051F A51F  A4 0B         	LDY COUNT
  119: 0521 A521  88            	DEY
  120: 0522 A522  B9 FC 01      STOLOP	LDA BUF-4,Y
  121: 0525 A525  91 5F         	STA (LOWTR),Y
  122: 0527 A527  88            	DEY
  123: 0528 A528  10 F8         	BPL STOLOP
  124: 052A A52A  20 59 A6      FINI	JSR RUNC
  125: 052D A52D  20 33 A5      	JSR LNKPRG
  126: 0530 A530  4C 80 A4      	JMP MAIN
  127: 0533 A533  A5 2B         LNKPRG	LDA TXTTAB
  128: 0535 A535  A4 2C         	LDY TXTTAB+1
  129: 0537 A537  85 22         	STA INDEX
  130: 0539 A539  84 23         	STY INDEX+1
  131: 053B A53B  18            	CLC 
  132: 053C A53C  A0 01         CHEAD	LDY #1
  133: 053E A53E  B1 22         	LDA (INDEX),Y
  134: 0540 A540  F0 1D         	BEQ LNKRTS
  135: 0542 A542  A0 04         	LDY #4
  136: 0544 A544  C8            CZLOOP	INY
  137: 0545 A545  B1 22         	LDA (INDEX),Y
  138: 0547 A547  D0 FB         	BNE CZLOOP
  139: 0549 A549  C8            	INY
  140: 054A A54A  98            	TYA
  141: 054B A54B  65 22         	ADC INDEX
  142: 054D A54D  AA            	TAX
  143: 054E A54E  A0 00         	LDY #0
  144: 0550 A550  91 22         	STA (INDEX),Y
  145: 0552 A552  A5 23         	LDA INDEX+1
  146: 0554 A554  69 00         	ADC #0
  147: 0556 A556  C8            	INY
  148: 0557 A557  91 22         	STA (INDEX),Y
  149: 0559 A559  86 22         	STX INDEX
  150: 055B A55B  85 23         	STA INDEX+1
  151: 055D A55D  90 DD         	BCC CHEAD
  152: 055F A55F  60            LNKRTS	RTS
  153:                          
  154:                          ;FUNCTION TO GET A LINE ONE CHARACTER AT
  155:                          ;A TIME FROM THE INPUT CHANNEL AND
  156:                          ;BUILD IT IN THE INPUT BUFFER.
  157:                          ;
  158: 0560 A560  A2 00         INLIN	LDX #0
  159:                          ;
  160: 0562 A562  20 12 E1      INLINC	JSR INCHR
  161: 0565 A565  C9 0D         	CMP #13         ;A CARRIAGE RETURN?
  162: 0567 A567  F0 0D         	BEQ FININ1      ;YES...DONE BUILD
  163:                          ;
  164: 0569 A569  9D 00 02      	STA BUF,X       ;PUT IT AWAY
  165: 056C A56C  E8            	INX
  166: 056D A56D  E0 59         	CPX #BUFLEN     ;MAX CHARACTER LINE?
  167: 056F A56F  90 F1         	BCC INLINC      ;NO...O.K.
  168:                          ;
  169: 0571 A571  A2 17         	LDX #ERRLS      ;STRING TOO LONG ERROR
  170: 0573 A573  4C 37 A4      	JMP ERROR
  171:                          ;
  172: 0576 A576  4C CA AA      FININ1	JMP FININL
  173:                          
 FILE: basic.a65
 FILE: code2.a65
    1:                          
    2:                          BUFOFS	=$200
    3: 0579 A579  6C 04 03      CRUNCH	JMP (ICRNCH)
    4: 057C A57C  A6 7A         NCRNCH	LDX TXTPTR
    5: 057E A57E  A0 04         	LDY #4
    6: 0580 A580  84 0F         	STY DORES
    7: 0582 A582  BD 00 02      KLOOP	LDA BUFOFS,X
    8: 0585 A585  10 07         	BPL CMPSPC
    9: 0587 A587  C9 FF         	CMP #PI
   10: 0589 A589  F0 3E         	BEQ STUFFH
   11: 058B A58B  E8            	INX
   12: 058C A58C  D0 F4         	BNE KLOOP
   13: 058E A58E  C9 20         CMPSPC	CMP #' '
   14: 0590 A590  F0 37         	BEQ STUFFH
   15: 0592 A592  85 08         	STA ENDCHR
   16: 0594 A594  C9 22         	CMP #34
   17: 0596 A596  F0 56         	BEQ STRNG
   18: 0598 A598  24 0F         	BIT DORES
   19: 059A A59A  70 2D         	BVS STUFFH
   20: 059C A59C  C9 3F         	CMP #'?'
   21: 059E A59E  D0 04         	BNE KLOOP1
   22: 05A0 A5A0  A9 99         	LDA #PRINTK
   23: 05A2 A5A2  D0 25         	BNE STUFFH
   24: 05A4 A5A4  C9 30         KLOOP1	CMP #'0'
   25: 05A6 A5A6  90 04         	BCC MUSTCR
   26: 05A8 A5A8  C9 3C         	CMP #60
   27: 05AA A5AA  90 1D         	BCC STUFFH
   28: 05AC A5AC  84 71         MUSTCR	STY BUFPTR
   29: 05AE A5AE  A0 00         	LDY #0
   30: 05B0 A5B0  84 0B         	STY COUNT
   31: 05B2 A5B2  88            	DEY
   32: 05B3 A5B3  86 7A         	STX TXTPTR
   33: 05B5 A5B5  CA            	DEX
   34: 05B6 A5B6  C8            RESER	INY
   35: 05B7 A5B7  E8            	INX
   36: 05B8 A5B8  BD 00 02      RESCON	LDA BUFOFS,X
   37: 05BB A5BB  38            	SEC
   38: 05BC A5BC  F9 9E A0      	SBC RESLST,Y
   39: 05BF A5BF  F0 F5         	BEQ RESER
   40: 05C1 A5C1  C9 80         	CMP #128
   41: 05C3 A5C3  D0 30         	BNE NTHIS
   42: 05C5 A5C5  05 0B         	ORA COUNT
   43: 05C7 A5C7  A4 71         GETBPT	LDY BUFPTR
   44: 05C9 A5C9  E8            STUFFH	INX
   45: 05CA A5CA  C8            	INY
   46: 05CB A5CB  99 FB 01      	STA BUF-5,Y
   47: 05CE A5CE  B9 FB 01      	LDA BUF-5,Y
   48: 05D1 A5D1  F0 36         	BEQ CRDONE
   49: 05D3 A5D3  38            	SEC
   50: 05D4 A5D4  E9 3A         	SBC #':'
   51: 05D6 A5D6  F0 04         	BEQ COLIS
   52: 05D8 A5D8  C9 49         	CMP #DATATK-$3A
   53: 05DA A5DA  D0 02         	BNE NODATT
   54: 05DC A5DC  85 0F         COLIS	STA DORES
   55: 05DE A5DE  38            NODATT	SEC
   56: 05DF A5DF  E9 55         	SBC #REMTK-$3A
   57: 05E1 A5E1  D0 9F         	BNE KLOOP
   58: 05E3 A5E3  85 08         	STA ENDCHR
   59: 05E5 A5E5  BD 00 02      STR1	LDA BUFOFS,X
   60: 05E8 A5E8  F0 DF         	BEQ STUFFH
   61: 05EA A5EA  C5 08         	CMP ENDCHR
   62: 05EC A5EC  F0 DB         	BEQ STUFFH
   63: 05EE A5EE  C8            STRNG	INY
   64: 05EF A5EF  99 FB 01      	STA BUF-5,Y
   65: 05F2 A5F2  E8            	INX
   66: 05F3 A5F3  D0 F0         	BNE STR1
   67: 05F5 A5F5  A6 7A         NTHIS	LDX TXTPTR
   68: 05F7 A5F7  E6 0B         	INC COUNT
   69: 05F9 A5F9  C8            NTHIS1	INY
   70: 05FA A5FA  B9 9D A0      	LDA RESLST-1,Y
   71: 05FD A5FD  10 FA         	BPL NTHIS1
   72: 05FF A5FF  B9 9E A0      	LDA RESLST,Y
   73: 0602 A602  D0 B4         	BNE RESCON
   74: 0604 A604  BD 00 02      	LDA BUFOFS,X
   75: 0607 A607  10 BE         	BPL GETBPT
   76: 0609 A609  99 FD 01      CRDONE	STA BUF-3,Y
   77: 060C A60C  C6 7B         	DEC TXTPTR+1
   78:                          ZZ1	=BUF-1
   79: 060E A60E  A9 FF         	LDA #<ZZ1
   80: 0610 A610  85 7A         	STA TXTPTR
   81: 0612 A612  60            	RTS
   82: 0613 A613  A5 2B         FNDLIN	LDA TXTTAB
   83: 0615 A615  A6 2C         	LDX TXTTAB+1
   84: 0617 A617  A0 01         FNDLNC	LDY #1
   85: 0619 A619  85 5F         	STA LOWTR
   86: 061B A61B  86 60         	STX LOWTR+1
   87: 061D A61D  B1 5F         	LDA (LOWTR),Y
   88: 061F A61F  F0 1F         	BEQ FLINRT
   89: 0621 A621  C8            	INY
   90: 0622 A622  C8            	INY
   91: 0623 A623  A5 15         	LDA LINNUM+1
   92: 0625 A625  D1 5F         	CMP (LOWTR),Y
   93: 0627 A627  90 18         	BCC FLNRTS
   94: 0629 A629  F0 03         	BEQ FNDLO1 
   95: 062B A62B  88            	DEY
   96: 062C A62C  D0 09         	BNE AFFRTS
   97: 062E A62E  A5 14         FNDLO1	LDA LINNUM
   98: 0630 A630  88            	DEY
   99: 0631 A631  D1 5F         	CMP (LOWTR),Y
  100: 0633 A633  90 0C         	BCC FLNRTS
  101: 0635 A635  F0 0A         	BEQ FLNRTS
  102: 0637 A637  88            AFFRTS	DEY
  103: 0638 A638  B1 5F         	LDA (LOWTR),Y
  104: 063A A63A  AA            	TAX
  105: 063B A63B  88            	DEY
  106: 063C A63C  B1 5F         	LDA (LOWTR),Y
  107: 063E A63E  B0 D7         	BCS FNDLNC
  108: 0640 A640  18            FLINRT	CLC
  109: 0641 A641  60            FLNRTS	RTS
  110: 0642 A642  D0 FD         SCRATH	BNE FLNRTS
  111: 0644 A644  A9 00         SCRTCH	LDA #0
  112: 0646 A646  A8            	TAY
  113: 0647 A647  91 2B         	STA (TXTTAB),Y
  114: 0649 A649  C8            	INY
  115: 064A A64A  91 2B         	STA (TXTTAB),Y
  116: 064C A64C  A5 2B         	LDA TXTTAB
  117: 064E A64E  18            	CLC
  118: 064F A64F  69 02         	ADC #2
  119: 0651 A651  85 2D         	STA VARTAB
  120: 0653 A653  A5 2C         	LDA TXTTAB+1
  121: 0655 A655  69 00         	ADC #0
  122: 0657 A657  85 2E         	STA VARTAB+1
  123: 0659 A659  20 8E A6      RUNC	JSR STXTPT
  124: 065C A65C  A9 00         	LDA #0
  125: 065E A65E  D0 2D         CLEAR	BNE STKRTS
  126: 0660 A660  20 E7 FF      CLEARC	JSR CCALL       ;MOVED FOR V2 ORIG FOR RS-232
  127: 0663 A663  A5 37         CLEART	LDA MEMSIZ      ;ENTRY FOR OPEN & CLOSE MEMSIZ CHANGES
  128: 0665 A665  A4 38         	LDY MEMSIZ+1
  129: 0667 A667  85 33         	STA FRETOP
  130: 0669 A669  84 34         	STY FRETOP+1
  131: 066B A66B  A5 2D         	LDA VARTAB
  132: 066D A66D  A4 2E         	LDY VARTAB+1
  133: 066F A66F  85 2F         	STA ARYTAB
  134: 0671 A671  84 30         	STY ARYTAB+1
  135: 0673 A673  85 31         	STA STREND
  136: 0675 A675  84 32         	STY STREND+1
  137: 0677 A677  20 1D A8      FLOAD	JSR RESTOR
  138: 067A A67A  A2 19         STKINI	LDX #TEMPST
  139: 067C A67C  86 16         	STX TEMPPT
  140: 067E A67E  68            	PLA 
  141: 067F A67F  A8            	TAY
  142: 0680 A680  68            	PLA
  143: 0681 A681  A2 FA         	LDX #STKEND-257
  144: 0683 A683  9A            	TXS
  145: 0684 A684  48            	PHA
  146: 0685 A685  98            	TYA
  147: 0686 A686  48            	PHA
  148: 0687 A687  A9 00         	LDA #0
  149: 0689 A689  85 3E         	STA OLDTXT+1
  150: 068B A68B  85 10         	STA SUBFLG
  151: 068D A68D  60            STKRTS	RTS
  152: 068E A68E  18            STXTPT	CLC
  153: 068F A68F  A5 2B         	LDA TXTTAB
  154: 0691 A691  69 FF         	ADC #255
  155: 0693 A693  85 7A         	STA TXTPTR
  156: 0695 A695  A5 2C         	LDA TXTTAB+1
  157: 0697 A697  69 FF         	ADC #255
  158: 0699 A699  85 7B         	STA TXTPTR+1
  159: 069B A69B  60            	RTS
  160:                          
 FILE: basic.a65
 FILE: code3.a65
    1:                          
    2: 069C A69C  90 06         LIST	BCC GOLST
    3: 069E A69E  F0 04         	BEQ GOLST
    4: 06A0 A6A0  C9 AB         	CMP #MINUTK
    5: 06A2 A6A2  D0 E9         	BNE STKRTS
    6: 06A4 A6A4  20 6B A9      GOLST	JSR LINGET
    7: 06A7 A6A7  20 13 A6      	JSR FNDLIN
    8: 06AA A6AA  20 79 00      	JSR CHRGOT
    9: 06AD A6AD  F0 0C         	BEQ LSTEND
   10: 06AF A6AF  C9 AB         	CMP #MINUTK
   11: 06B1 A6B1  D0 8E         	BNE FLNRTS
   12: 06B3 A6B3  20 73 00      	JSR CHRGET
   13: 06B6 A6B6  20 6B A9      	JSR LINGET
   14: 06B9 A6B9  D0 86         	BNE FLNRTS
   15: 06BB A6BB  68            LSTEND	PLA
   16: 06BC A6BC  68            	PLA
   17: 06BD A6BD  A5 14         	LDA LINNUM
   18: 06BF A6BF  05 15         	ORA LINNUM+1
   19: 06C1 A6C1  D0 06         	BNE LIST4
   20: 06C3 A6C3  A9 FF         	LDA #255
   21: 06C5 A6C5  85 14         	STA LINNUM
   22: 06C7 A6C7  85 15         	STA LINNUM+1
   23: 06C9 A6C9  A0 01         LIST4	LDY #1
   24: 06CB A6CB  84 0F         	STY DORES
   25: 06CD A6CD  B1 5F         	LDA (LOWTR),Y
   26: 06CF A6CF  F0 43         	BEQ GRODY
   27: 06D1 A6D1  20 2C A8      	JSR ISCNTC
   28: 06D4 A6D4  20 D7 AA      	JSR CRDO
   29: 06D7 A6D7  C8            	INY
   30: 06D8 A6D8  B1 5F         	LDA (LOWTR),Y
   31: 06DA A6DA  AA            	TAX
   32: 06DB A6DB  C8            	INY
   33: 06DC A6DC  B1 5F         	LDA (LOWTR),Y
   34: 06DE A6DE  C5 15         	CMP LINNUM+1
   35: 06E0 A6E0  D0 04         	BNE TSTDUN
   36: 06E2 A6E2  E4 14         	CPX LINNUM
   37: 06E4 A6E4  F0 02         	BEQ TYPLIN
   38: 06E6 A6E6  B0 2C         TSTDUN	BCS GRODY
   39: 06E8 A6E8  84 49         TYPLIN	STY LSTPNT
   40: 06EA A6EA  20 CD BD      	JSR LINPRT
   41: 06ED A6ED  A9 20         	LDA #' '
   42: 06EF A6EF  A4 49         PRIT4	LDY LSTPNT
   43: 06F1 A6F1  29 7F         	AND #127
   44: 06F3 A6F3  20 47 AB      PLOOP	JSR OUTDO
   45: 06F6 A6F6  C9 22         	CMP #34
   46: 06F8 A6F8  D0 06         	BNE PLOOP1
   47: 06FA A6FA  A5 0F         	LDA DORES
   48: 06FC A6FC  49 FF         	EOR #$FF
   49: 06FE A6FE  85 0F         	STA DORES
   50: 0700 A700  C8            PLOOP1	INY
   51: 0701 A701  F0 11         	BEQ GRODY
   52: 0703 A703  B1 5F         	LDA (LOWTR),Y
   53: 0705 A705  D0 10         	BNE QPLOP
   54: 0707 A707  A8            	TAY
   55: 0708 A708  B1 5F         	LDA (LOWTR),Y
   56: 070A A70A  AA            	TAX
   57: 070B A70B  C8            	INY
   58: 070C A70C  B1 5F         	LDA (LOWTR),Y
   59: 070E A70E  86 5F         	STX LOWTR
   60: 0710 A710  85 60         	STA LOWTR+1
   61: 0712 A712  D0 B5         	BNE LIST4
   62: 0714 A714  4C 86 E3      GRODY	JMP READY
   63: 0717 A717  6C 06 03      QPLOP	JMP (IQPLOP)
   64: 071A A71A  10 D7         NQPLOP	BPL PLOOP
   65: 071C A71C  C9 FF         	CMP #PI
   66: 071E A71E  F0 D3         	BEQ PLOOP
   67: 0720 A720  24 0F         	BIT DORES
   68: 0722 A722  30 CF         	BMI PLOOP
   69: 0724 A724  38            	SEC
   70: 0725 A725  E9 7F         	SBC #127
   71: 0727 A727  AA            	TAX
   72: 0728 A728  84 49         	STY LSTPNT
   73: 072A A72A  A0 FF         	LDY #255
   74: 072C A72C  CA            RESRCH	DEX
   75: 072D A72D  F0 08         	BEQ PRIT3
   76: 072F A72F  C8            RESCR1	INY
   77: 0730 A730  B9 9E A0      	LDA RESLST,Y
   78: 0733 A733  10 FA         	BPL RESCR1
   79: 0735 A735  30 F5         	BMI RESRCH
   80: 0737 A737  C8            PRIT3	INY
   81: 0738 A738  B9 9E A0      	LDA RESLST,Y
   82: 073B A73B  30 B2         	BMI PRIT4
   83: 073D A73D  20 47 AB      	JSR OUTDO
   84: 0740 A740  D0 F5         	BNE PRIT3
   85: 0742 A742  A9 80         FOR	LDA #128
   86: 0744 A744  85 10         	STA SUBFLG
   87: 0746 A746  20 A5 A9      	JSR LET
   88: 0749 A749  20 8A A3      	JSR FNDFOR
   89: 074C A74C  D0 05         	BNE NOTOL
   90: 074E A74E  8A            	TXA
   91: 074F A74F  69 0F         	ADC #FORSIZ-3
   92: 0751 A751  AA            	TAX
   93: 0752 A752  9A            	TXS
   94: 0753 A753  68            NOTOL	PLA
   95: 0754 A754  68            	PLA
   96: 0755 A755  A9 09         	LDA #8+ADDPRC
   97: 0757 A757  20 FB A3      	JSR GETSTK
   98: 075A A75A  20 06 A9      	JSR DATAN
   99: 075D A75D  18            	CLC
  100: 075E A75E  98            	TYA
  101: 075F A75F  65 7A         	ADC TXTPTR
  102: 0761 A761  48            	PHA
  103: 0762 A762  A5 7B         	LDA TXTPTR+1
  104: 0764 A764  69 00         	ADC #0
  105: 0766 A766  48            	PHA
  106: 0767 A767  A5 3A         	LDA CURLIN+1
  107: 0769 A769  48            	PHA
  108: 076A A76A  A5 39         	LDA CURLIN
  109: 076C A76C  48            	PHA
  110: 076D A76D  A9 A4         	LDA #TOTK
  111: 076F A76F  20 FF AE      	JSR SYNCHR
  112: 0772 A772  20 8D AD      	JSR CHKNUM
  113: 0775 A775  20 8A AD      	JSR FRMNUM
  114: 0778 A778  A5 66         	LDA FACSGN
  115: 077A A77A  09 7F         	ORA #127
  116: 077C A77C  25 62         	AND FACHO
  117: 077E A77E  85 62         	STA FACHO
  118: 0780 A780  A9 8B         	LDA #<LDFONE
  119: 0782 A782  A0 A7         	LDY #>LDFONE
  120: 0784 A784  85 22         	STA INDEX1
  121: 0786 A786  84 23         	STY INDEX1+1
  122: 0788 A788  4C 43 AE      	JMP FORPSH
  123: 078B A78B  A9 BC         LDFONE	LDA #<FONE
  124: 078D A78D  A0 B9         	LDY #>FONE
  125: 078F A78F  20 A2 BB      	JSR MOVFM
  126: 0792 A792  20 79 00      	JSR CHRGOT
  127: 0795 A795  C9 A9         	CMP #STEPTK
  128: 0797 A797  D0 06         	BNE ONEON
  129: 0799 A799  20 73 00      	JSR CHRGET
  130: 079C A79C  20 8A AD      	JSR FRMNUM
  131: 079F A79F  20 2B BC      ONEON	JSR SIGN
  132: 07A2 A7A2  20 38 AE      	JSR PUSHF
  133: 07A5 A7A5  A5 4A         	LDA FORPNT+1
  134: 07A7 A7A7  48            	PHA
  135: 07A8 A7A8  A5 49         	LDA FORPNT
  136: 07AA A7AA  48            	PHA
  137: 07AB A7AB  A9 81         	LDA #FORTK
  138: 07AD A7AD  48            	PHA
  139:                          
 FILE: basic.a65
 FILE: code4.a65
    1:                          
    2: 07AE A7AE  20 2C A8      NEWSTT	JSR ISCNTC
    3: 07B1 A7B1  A5 7A         	LDA TXTPTR
    4: 07B3 A7B3  A4 7B         	LDY TXTPTR+1
    5: 07B5 A7B5  C0 02         	CPY #BUFPAG
    6: 07B7 A7B7  EA            	NOP
    7: 07B8 A7B8  F0 04         	BEQ DIRCON
    8: 07BA A7BA  85 3D         	STA OLDTXT
    9: 07BC A7BC  84 3E         	STY OLDTXT+1
   10: 07BE A7BE  A0 00         DIRCON	LDY #0
   11: 07C0 A7C0  B1 7A         	LDA (TXTPTR),Y
   12: 07C2 A7C2  D0 43         	BNE MORSTS
   13: 07C4 A7C4  A0 02         	LDY #2
   14: 07C6 A7C6  B1 7A         	LDA (TXTPTR),Y
   15: 07C8 A7C8  18            	CLC
   16: 07C9 A7C9  D0 03         	BNE DIRCN1
   17: 07CB A7CB  4C 4B A8      	JMP ENDCON
   18: 07CE A7CE  C8            DIRCN1	INY
   19: 07CF A7CF  B1 7A         	LDA (TXTPTR),Y
   20: 07D1 A7D1  85 39         	STA CURLIN
   21: 07D3 A7D3  C8            	INY
   22: 07D4 A7D4  B1 7A         	LDA (TXTPTR),Y
   23: 07D6 A7D6  85 3A         	STA CURLIN+1
   24: 07D8 A7D8  98            	TYA
   25: 07D9 A7D9  65 7A         	ADC TXTPTR
   26: 07DB A7DB  85 7A         	STA TXTPTR
   27: 07DD A7DD  90 02         	BCC GONE
   28: 07DF A7DF  E6 7B         	INC TXTPTR+1
   29: 07E1 A7E1  6C 08 03      GONE	JMP (IGONE)
   30: 07E4 A7E4  20 73 00      NGONE	JSR CHRGET
   31: 07E7 A7E7  20 ED A7      NGONE1	JSR GONE3
   32: 07EA A7EA  4C AE A7      	JMP NEWSTT
   33: 07ED A7ED  F0 3C         GONE3	BEQ ISCRTS
   34: 07EF A7EF  E9 80         GONE2	SBC #ENDTK
   35: 07F1 A7F1  90 11         	BCC GLET
   36: 07F3 A7F3  C9 23         	CMP #SCRATK-ENDTK+1
   37: 07F5 A7F5  B0 17         	BCS SNERRX
   38: 07F7 A7F7  0A            	ASL
   39: 07F8 A7F8  A8            	TAY
   40: 07F9 A7F9  B9 0D A0      	LDA STMDSP+1,Y
   41: 07FC A7FC  48            	PHA
   42: 07FD A7FD  B9 0C A0      	LDA STMDSP,Y
   43: 0800 A800  48            	PHA
   44: 0801 A801  4C 73 00      	JMP CHRGET
   45: 0804 A804  4C A5 A9      GLET	JMP LET
   46: 0807 A807  C9 3A         MORSTS	CMP #':'
   47: 0809 A809  F0 D6         	BEQ GONE
   48: 080B A80B  4C 08 AF      SNERR1	JMP SNERR
   49: 080E A80E  C9 4B         SNERRX	CMP #GOTK-ENDTK
   50: 0810 A810  D0 F9         	BNE SNERR1
   51: 0812 A812  20 73 00      	JSR CHRGET
   52: 0815 A815  A9 A4         	LDA #TOTK
   53: 0817 A817  20 FF AE      	JSR SYNCHR
   54: 081A A81A  4C A0 A8      	JMP GOTO
   55: 081D A81D  38            RESTOR	SEC
   56: 081E A81E  A5 2B         	LDA TXTTAB
   57: 0820 A820  E9 01         	SBC #1
   58: 0822 A822  A4 2C         	LDY TXTTAB+1
   59: 0824 A824  B0 01         	BCS RESFIN
   60: 0826 A826  88            	DEY
   61: 0827 A827  85 41         RESFIN	STA DATPTR
   62: 0829 A829  84 42         	STY DATPTR+1
   63: 082B A82B  60            ISCRTS	RTS
   64: 082C A82C  20 E1 FF      ISCNTC	JSR $FFE1
   65: 082F A82F  B0 01         STOP	BCS STOPC
   66: 0831 A831  18            END	CLC
   67: 0832 A832  D0 3C         STOPC	BNE CONTRT
   68: 0834 A834  A5 7A         	LDA TXTPTR
   69: 0836 A836  A4 7B         	LDY TXTPTR+1
   70: 0838 A838  A6 3A         	LDX CURLIN+1
   71: 083A A83A  E8            	INX
   72: 083B A83B  F0 0C         	BEQ DIRIS
   73: 083D A83D  85 3D         	STA OLDTXT
   74: 083F A83F  84 3E         	STY OLDTXT+1
   75: 0841 A841  A5 39         STPEND	LDA CURLIN
   76: 0843 A843  A4 3A         	LDY CURLIN+1
   77: 0845 A845  85 3B         	STA OLDLIN
   78: 0847 A847  84 3C         	STY OLDLIN+1
   79: 0849 A849  68            DIRIS	PLA
   80: 084A A84A  68            	PLA
   81: 084B A84B  A9 81         ENDCON	LDA #<BRKTXT
   82: 084D A84D  A0 A3         	LDY #>BRKTXT
   83: 084F A84F  90 03         	BCC GORDY
   84: 0851 A851  4C 69 A4      	JMP ERRFIN
   85: 0854 A854  4C 86 E3      GORDY	JMP READY
   86: 0857 A857  D0 17         CONT	BNE CONTRT
   87: 0859 A859  A2 1A         	LDX #ERRCN
   88: 085B A85B  A4 3E         	LDY OLDTXT+1
   89: 085D A85D  D0 03         	BNE @+5
   90: 085F A85F  4C 37 A4      	JMP ERROR
   91: 0862 A862  A5 3D         	LDA OLDTXT
   92: 0864 A864  85 7A         	STA TXTPTR
   93: 0866 A866  84 7B         	STY TXTPTR+1
   94: 0868 A868  A5 3B         	LDA OLDLIN
   95: 086A A86A  A4 3C         	LDY OLDLIN+1
   96: 086C A86C  85 39         	STA CURLIN
   97: 086E A86E  84 3A         	STY CURLIN+1
   98: 0870 A870  60            CONTRT	RTS
   99: 0871 A871  08            RUN	PHP
  100: 0872 A872  A9 00         	LDA #0          ;NO KERNAL MESSAGES
  101: 0874 A874  20 90 FF      	JSR SETMSG
  102: 0877 A877  28            	PLP
  103: 0878 A878  D0 03         	BNE @+5
  104: 087A A87A  4C 59 A6      	JMP RUNC
  105: 087D A87D  20 60 A6      	JSR CLEARC
  106: 0880 A880  4C 97 A8      	JMP RUNC2
  107: 0883 A883  A9 03         GOSUB	LDA #3
  108: 0885 A885  20 FB A3      	JSR GETSTK
  109: 0888 A888  A5 7B         	LDA TXTPTR+1
  110: 088A A88A  48            	PHA
  111: 088B A88B  A5 7A         	LDA TXTPTR
  112: 088D A88D  48            	PHA
  113: 088E A88E  A5 3A         	LDA CURLIN+1
  114: 0890 A890  48            	PHA
  115: 0891 A891  A5 39         	LDA CURLIN
  116: 0893 A893  48            	PHA
  117: 0894 A894  A9 8D         	LDA #GOSUTK
  118: 0896 A896  48            	PHA
  119: 0897 A897  20 79 00      RUNC2	JSR CHRGOT
  120: 089A A89A  20 A0 A8      	JSR GOTO
  121: 089D A89D  4C AE A7      	JMP NEWSTT
  122: 08A0 A8A0  20 6B A9      GOTO	JSR LINGET
  123: 08A3 A8A3  20 09 A9      	JSR REMN
  124: 08A6 A8A6  38            	SEC
  125: 08A7 A8A7  A5 39         	LDA CURLIN
  126: 08A9 A8A9  E5 14         	SBC LINNUM
  127: 08AB A8AB  A5 3A         	LDA CURLIN+1
  128: 08AD A8AD  E5 15         	SBC LINNUM+1
  129: 08AF A8AF  B0 0B         	BCS LUK4IT
  130: 08B1 A8B1  98            	TYA
  131: 08B2 A8B2  38            	SEC
  132: 08B3 A8B3  65 7A         	ADC TXTPTR
  133: 08B5 A8B5  A6 7B         	LDX TXTPTR+1
  134: 08B7 A8B7  90 07         	BCC LUKALL
  135: 08B9 A8B9  E8            	INX
  136: 08BA A8BA  B0 04         	BCS LUKALL
  137: 08BC A8BC  A5 2B         LUK4IT	LDA TXTTAB
  138: 08BE A8BE  A6 2C         	LDX TXTTAB+1
  139: 08C0 A8C0  20 17 A6      LUKALL	JSR FNDLNC
  140: 08C3 A8C3  90 1E         	BCC USERR
  141: 08C5 A8C5  A5 5F         	LDA LOWTR
  142: 08C7 A8C7  E9 01         	SBC #1
  143:                          
 FILE: basic.a65
 FILE: code5.a65
    1:                          
    2: 08C9 A8C9  85 7A         	STA TXTPTR
    3: 08CB A8CB  A5 60         	LDA LOWTR+1
    4: 08CD A8CD  E9 00         	SBC #0
    5: 08CF A8CF  85 7B         	STA TXTPTR+1
    6: 08D1 A8D1  60            GORTS	RTS
    7: 08D2 A8D2  D0 FD         RETURN	BNE GORTS
    8: 08D4 A8D4  A9 FF         	LDA #255
    9: 08D6 A8D6  85 4A         	STA FORPNT+1
   10: 08D8 A8D8  20 8A A3      	JSR FNDFOR
   11: 08DB A8DB  9A            	TXS
   12: 08DC A8DC  C9 8D         	CMP #GOSUTK
   13: 08DE A8DE  F0 0B         	BEQ RETU1
   14: 08E0 A8E0  A2 0C         	LDX #ERRRG
   15: 08E2 A8E2  2C            	.BYTE $2C
   16: 08E3 A8E3  A2 11         USERR	LDX #ERRUS
   17: 08E5 A8E5  4C 37 A4      	JMP ERROR
   18: 08E8 A8E8  4C 08 AF      SNERR2	JMP SNERR
   19: 08EB A8EB  68            RETU1	PLA
   20: 08EC A8EC  68            	PLA
   21: 08ED A8ED  85 39         	STA CURLIN
   22: 08EF A8EF  68            	PLA
   23: 08F0 A8F0  85 3A         	STA CURLIN+1
   24: 08F2 A8F2  68            	PLA
   25: 08F3 A8F3  85 7A         	STA TXTPTR
   26: 08F5 A8F5  68            	PLA
   27: 08F6 A8F6  85 7B         	STA TXTPTR+1
   28: 08F8 A8F8  20 06 A9      DATA	JSR DATAN
   29: 08FB A8FB  98            ADDON	TYA
   30: 08FC A8FC  18            	CLC
   31: 08FD A8FD  65 7A         	ADC TXTPTR
   32: 08FF A8FF  85 7A         	STA TXTPTR
   33: 0901 A901  90 02         	BCC REMRTS
   34: 0903 A903  E6 7B         	INC TXTPTR+1
   35: 0905 A905  60            REMRTS	RTS
   36: 0906 A906  A2 3A         DATAN	LDX #':'
   37: 0908 A908  2C            	.BYTE $2C
   38: 0909 A909  A2 00         REMN	LDX #0
   39: 090B A90B  86 07         	STX CHARAC
   40: 090D A90D  A0 00         	LDY #0
   41: 090F A90F  84 08         	STY ENDCHR
   42: 0911 A911  A5 08         EXCHQT	LDA ENDCHR
   43: 0913 A913  A6 07         	LDX CHARAC
   44: 0915 A915  85 07         	STA CHARAC
   45: 0917 A917  86 08         	STX ENDCHR
   46: 0919 A919  B1 7A         REMER	LDA (TXTPTR),Y
   47: 091B A91B  F0 E8         	BEQ REMRTS
   48: 091D A91D  C5 08         	CMP ENDCHR
   49: 091F A91F  F0 E4         	BEQ REMRTS
   50: 0921 A921  C8            	INY
   51: 0922 A922  C9 22         	CMP #34
   52: 0924 A924  D0 F3         	BNE REMER
   53: 0926 A926  F0 E9         	BEQ EXCHQT
   54: 0928 A928  20 9E AD      IF	JSR FRMEVL
   55: 092B A92B  20 79 00      	JSR CHRGOT
   56: 092E A92E  C9 89         	CMP #GOTOTK
   57: 0930 A930  F0 05         	BEQ OKGOTO
   58: 0932 A932  A9 A7         	LDA #THENTK
   59: 0934 A934  20 FF AE      	JSR SYNCHR
   60: 0937 A937  A5 61         OKGOTO	LDA FACEXP
   61: 0939 A939  D0 05         	BNE DOCOND
   62: 093B A93B  20 09 A9      REM	JSR REMN
   63: 093E A93E  F0 BB         	BEQ ADDON
   64: 0940 A940  20 79 00      DOCOND	JSR CHRGOT
   65: 0943 A943  B0 03         	BCS DOCO
   66: 0945 A945  4C A0 A8      	JMP GOTO
   67: 0948 A948  4C ED A7      DOCO	JMP GONE3
   68: 094B A94B  20 9E B7      ONGOTO	JSR GETBYT
   69: 094E A94E  48            	PHA
   70: 094F A94F  C9 8D         	CMP #GOSUTK
   71: 0951 A951  F0 04         	BEQ ONGLOP
   72: 0953 A953  C9 89         SNERR3	CMP #GOTOTK
   73: 0955 A955  D0 91         	BNE SNERR2
   74: 0957 A957  C6 65         ONGLOP	DEC FACLO
   75: 0959 A959  D0 04         	BNE ONGLP1
   76: 095B A95B  68            	PLA
   77: 095C A95C  4C EF A7      	JMP GONE2
   78: 095F A95F  20 73 00      ONGLP1	JSR CHRGET
   79: 0962 A962  20 6B A9      	JSR LINGET
   80: 0965 A965  C9 2C         	CMP #44
   81: 0967 A967  F0 EE         	BEQ ONGLOP
   82: 0969 A969  68            	PLA
   83: 096A A96A  60            ONGRTS	RTS
   84: 096B A96B  A2 00         LINGET	LDX #0
   85: 096D A96D  86 14         	STX LINNUM
   86: 096F A96F  86 15         	STX LINNUM+1
   87: 0971 A971  B0 F7         MORLIN	BCS ONGRTS
   88: 0973 A973  E9 2F         	SBC #$2F
   89: 0975 A975  85 07         	STA CHARAC
   90: 0977 A977  A5 15         	LDA LINNUM+1
   91: 0979 A979  85 22         	STA INDEX
   92: 097B A97B  C9 19         	CMP #25
   93: 097D A97D  B0 D4         	BCS SNERR3
   94: 097F A97F  A5 14         	LDA LINNUM
   95: 0981 A981  0A            	ASL
   96: 0982 A982  26 22         	ROL INDEX
   97: 0984 A984  0A            	ASL
   98: 0985 A985  26 22         	ROL INDEX
   99: 0987 A987  65 14         	ADC LINNUM
  100: 0989 A989  85 14         	STA LINNUM
  101: 098B A98B  A5 22         	LDA INDEX
  102: 098D A98D  65 15         	ADC LINNUM+1
  103: 098F A98F  85 15         	STA LINNUM+1
  104: 0991 A991  06 14         	ASL LINNUM
  105: 0993 A993  26 15         	ROL LINNUM+1
  106: 0995 A995  A5 14         	LDA LINNUM
  107: 0997 A997  65 07         	ADC CHARAC
  108: 0999 A999  85 14         	STA LINNUM
  109: 099B A99B  90 02         	BCC NXTLGC
  110: 099D A99D  E6 15         	INC LINNUM+1
  111: 099F A99F  20 73 00      NXTLGC	JSR CHRGET
  112: 09A2 A9A2  4C 71 A9      	JMP MORLIN
  113: 09A5 A9A5  20 8B B0      LET	JSR PTRGET
  114: 09A8 A9A8  85 49         	STA FORPNT
  115: 09AA A9AA  84 4A         	STY FORPNT+1
  116: 09AC A9AC  A9 B2         	LDA #$B2
  117: 09AE A9AE  20 FF AE      	JSR SYNCHR
  118: 09B1 A9B1  A5 0E         	LDA INTFLG
  119: 09B3 A9B3  48            	PHA
  120: 09B4 A9B4  A5 0D         	LDA VALTYP
  121: 09B6 A9B6  48            	PHA
  122: 09B7 A9B7  20 9E AD      	JSR FRMEVL
  123: 09BA A9BA  68            	PLA
  124: 09BB A9BB  2A            	ROL
  125: 09BC A9BC  20 90 AD      	JSR CHKVAL
  126: 09BF A9BF  D0 18         	BNE COPSTR
  127: 09C1 A9C1  68            	PLA
  128: 09C2 A9C2  10 12         QINTGR	BPL COPFLT
  129: 09C4 A9C4  20 1B BC      	JSR ROUND
  130: 09C7 A9C7  20 BF B1      	JSR AYINT
  131: 09CA A9CA  A0 00         	LDY #0
  132: 09CC A9CC  A5 64         	LDA FACMO
  133: 09CE A9CE  91 49         	STA (FORPNT),Y
  134: 09D0 A9D0  C8            	INY
  135: 09D1 A9D1  A5 65         	LDA FACLO
  136: 09D3 A9D3  91 49         	STA (FORPNT),Y
  137: 09D5 A9D5  60            	RTS
  138: 09D6 A9D6  4C D0 BB      COPFLT	JMP MOVVF
  139: 09D9 A9D9  68            COPSTR	PLA
  140: 09DA A9DA  A4 4A         INPCOM	LDY FORPNT+1
  141: 09DC A9DC  C0 BF         	CPY #>ZERO
  142: 09DE A9DE  D0 4C         	BNE GETSPT
  143: 09E0 A9E0  20 A6 B6      	JSR FREFAC
  144: 09E3 A9E3  C9 06         	CMP #6
  145: 09E5 A9E5  D0 3D         	BNE FCERR2
  146: 09E7 A9E7  A0 00         	LDY #0
  147: 09E9 A9E9  84 61         	STY FACEXP
  148: 09EB A9EB  84 66         	STY FACSGN
  149:                          
 FILE: basic.a65
 FILE: code6.a65
    1:                          
    2: 09ED A9ED  84 71         TIMELP	STY FBUFPT
    3: 09EF A9EF  20 1D AA      	JSR TIMNUM
    4: 09F2 A9F2  20 E2 BA      	JSR MUL10
    5: 09F5 A9F5  E6 71         	INC FBUFPT
    6: 09F7 A9F7  A4 71         	LDY FBUFPT
    7: 09F9 A9F9  20 1D AA      	JSR TIMNUM
    8: 09FC A9FC  20 0C BC      	JSR MOVAF
    9: 09FF A9FF  AA            	TAX
   10: 0A00 AA00  F0 05         	BEQ NOML6
   11: 0A02 AA02  E8            	INX
   12: 0A03 AA03  8A            	TXA
   13: 0A04 AA04  20 ED BA      	JSR FINML6
   14: 0A07 AA07  A4 71         NOML6	LDY FBUFPT
   15: 0A09 AA09  C8            	INY
   16: 0A0A AA0A  C0 06         	CPY #6
   17: 0A0C AA0C  D0 DF         	BNE TIMELP
   18: 0A0E AA0E  20 E2 BA      	JSR MUL10
   19: 0A11 AA11  20 9B BC      	JSR QINT
   20: 0A14 AA14  A6 64         	LDX FACMO
   21: 0A16 AA16  A4 63         	LDY FACMOH
   22: 0A18 AA18  A5 65         	LDA FACLO
   23: 0A1A AA1A  4C DB FF      	JMP SETTIM
   24: 0A1D AA1D  B1 22         TIMNUM	LDA (INDEX),Y
   25: 0A1F AA1F  20 80 00      	JSR QNUM
   26: 0A22 AA22  90 03         	BCC GOTNUM
   27: 0A24 AA24  4C 48 B2      FCERR2	JMP FCERR
   28: 0A27 AA27  E9 2F         GOTNUM	SBC #$2F
   29: 0A29 AA29  4C 7E BD      	JMP FINLOG
   30: 0A2C AA2C  A0 02         GETSPT	LDY #2
   31: 0A2E AA2E  B1 64         	LDA (FACMO),Y
   32: 0A30 AA30  C5 34         	CMP FRETOP+1
   33: 0A32 AA32  90 17         	BCC DNTCPY
   34: 0A34 AA34  D0 07         	BNE QVARIA
   35: 0A36 AA36  88            	DEY
   36: 0A37 AA37  B1 64         	LDA (FACMO),Y
   37: 0A39 AA39  C5 33         	CMP FRETOP
   38: 0A3B AA3B  90 0E         	BCC DNTCPY
   39: 0A3D AA3D  A4 65         QVARIA	LDY FACLO
   40: 0A3F AA3F  C4 2E         	CPY VARTAB+1
   41: 0A41 AA41  90 08         	BCC DNTCPY
   42: 0A43 AA43  D0 0D         	BNE COPY
   43: 0A45 AA45  A5 64         	LDA FACMO
   44: 0A47 AA47  C5 2D         	CMP VARTAB
   45: 0A49 AA49  B0 07         	BCS COPY
   46: 0A4B AA4B  A5 64         DNTCPY	LDA FACMO
   47: 0A4D AA4D  A4 65         	LDY FACMO+1
   48: 0A4F AA4F  4C 68 AA      	JMP COPYC
   49: 0A52 AA52  A0 00         COPY	LDY #0
   50: 0A54 AA54  B1 64         	LDA (FACMO),Y
   51: 0A56 AA56  20 75 B4      	JSR STRINI
   52: 0A59 AA59  A5 50         	LDA DSCPNT
   53: 0A5B AA5B  A4 51         	LDY DSCPNT+1
   54: 0A5D AA5D  85 6F         	STA STRNG1
   55: 0A5F AA5F  84 70         	STY STRNG1+1
   56: 0A61 AA61  20 7A B6      	JSR MOVINS
   57: 0A64 AA64  A9 61         	LDA #<DSCTMP
   58: 0A66 AA66  A0 00         	LDY #>DSCTMP
   59: 0A68 AA68  85 50         COPYC	STA DSCPNT
   60: 0A6A AA6A  84 51         	STY DSCPNT+1
   61: 0A6C AA6C  20 DB B6      	JSR FRETMS
   62: 0A6F AA6F  A0 00         	LDY #0
   63: 0A71 AA71  B1 50         	LDA (DSCPNT),Y
   64: 0A73 AA73  91 49         	STA (FORPNT),Y
   65: 0A75 AA75  C8            	INY
   66: 0A76 AA76  B1 50         	LDA (DSCPNT),Y
   67: 0A78 AA78  91 49         	STA (FORPNT),Y
   68: 0A7A AA7A  C8            	INY
   69: 0A7B AA7B  B1 50         	LDA (DSCPNT),Y
   70: 0A7D AA7D  91 49         	STA (FORPNT),Y
   71: 0A7F AA7F  60            	RTS
   72: 0A80 AA80  20 86 AA      PRINTN	JSR CMD
   73: 0A83 AA83  4C B5 AB      	JMP IODONE
   74: 0A86 AA86  20 9E B7      CMD	JSR GETBYT
   75: 0A89 AA89  F0 05         	BEQ SAVEIT
   76: 0A8B AA8B  A9 2C         	LDA #44
   77: 0A8D AA8D  20 FF AE      	JSR SYNCHR
   78: 0A90 AA90  08            SAVEIT	PHP
   79: 0A91 AA91  86 13         	STX CHANNL
   80: 0A93 AA93  20 18 E1      	JSR COOUT
   81: 0A96 AA96  28            	PLP
   82: 0A97 AA97  4C A0 AA      	JMP PRINT
   83: 0A9A AA9A  20 21 AB      STRDON	JSR STRPRT
   84: 0A9D AA9D  20 79 00      NEWCHR	JSR CHRGOT
   85: 0AA0 AAA0  F0 35         PRINT	BEQ CRDO
   86: 0AA2 AAA2  F0 43         PRINTC	BEQ PRTRTS
   87: 0AA4 AAA4  C9 A3         	CMP #TABTK
   88: 0AA6 AAA6  F0 50         	BEQ TABER
   89: 0AA8 AAA8  C9 A6         	CMP #SPCTK
   90: 0AAA AAAA  18            	CLC
   91: 0AAB AAAB  F0 4B         	BEQ TABER
   92: 0AAD AAAD  C9 2C         	CMP #44
   93: 0AAF AAAF  F0 37         	BEQ COMPRT
   94: 0AB1 AAB1  C9 3B         	CMP #59
   95: 0AB3 AAB3  F0 5E         	BEQ NOTABR
   96: 0AB5 AAB5  20 9E AD      	JSR FRMEVL
   97: 0AB8 AAB8  24 0D         	BIT VALTYP
   98: 0ABA AABA  30 DE         	BMI STRDON
   99: 0ABC AABC  20 DD BD      	JSR FOUT
  100: 0ABF AABF  20 87 B4      	JSR STRLIT
  101: 0AC2 AAC2  20 21 AB      	JSR STRPRT
  102: 0AC5 AAC5  20 3B AB      	JSR OUTSPC
  103: 0AC8 AAC8  D0 D3         	BNE NEWCHR
  104: 0ACA AACA  A9 00         FININL	LDA #0
  105: 0ACC AACC  9D 00 02      	STA BUF,X
  106:                          ZZ5=BUF-1
  107: 0ACF AACF  A2 FF         	LDX #<ZZ5
  108: 0AD1 AAD1  A0 01         	LDY #>ZZ5
  109: 0AD3 AAD3  A5 13         	LDA CHANNL
  110: 0AD5 AAD5  D0 10         	BNE PRTRTS
  111: 0AD7 AAD7  A9 0D         CRDO	LDA #13
  112: 0AD9 AAD9  20 47 AB      	JSR OUTDO
  113: 0ADC AADC  24 13         	BIT CHANNL
  114: 0ADE AADE  10 05         	BPL CRFIN
  115:                          ;
  116: 0AE0 AAE0  A9 0A         	LDA #10
  117: 0AE2 AAE2  20 47 AB      	JSR OUTDO
  118: 0AE5 AAE5  49 FF         CRFIN	EOR #255
  119: 0AE7 AAE7  60            PRTRTS	RTS
  120: 0AE8 AAE8  38            COMPRT	SEC
  121: 0AE9 AAE9  20 F0 FF      	JSR PLOT        ;GET TAB POSITION IN X
  122: 0AEC AAEC  98            	TYA
  123:                          NCMPOS	=$1E
  124: 0AED AAED  38            	SEC
  125: 0AEE AAEE  E9 0A         MORCO1	SBC #CLMWID
  126: 0AF0 AAF0  B0 FC         	BCS MORCO1
  127: 0AF2 AAF2  49 FF         	EOR #255
  128: 0AF4 AAF4  69 01         	ADC #1
  129: 0AF6 AAF6  D0 16         	BNE ASPAC
  130: 0AF8 AAF8  08            TABER	PHP
  131: 0AF9 AAF9  38            	SEC
  132: 0AFA AAFA  20 F0 FF      	JSR PLOT        ;READ TAB POSITION
  133: 0AFD AAFD  84 09         	STY TRMPOS
  134: 0AFF AAFF  20 9B B7      	JSR GTBYTC
  135: 0B02 AB02  C9 29         	CMP #41
  136: 0B04 AB04  D0 59         	BNE SNERR4
  137: 0B06 AB06  28            	PLP
  138: 0B07 AB07  90 06         	BCC XSPAC
  139: 0B09 AB09  8A            	TXA
  140: 0B0A AB0A  E5 09         	SBC TRMPOS
  141: 0B0C AB0C  90 05         	BCC NOTABR
  142: 0B0E AB0E  AA            ASPAC	TAX
  143: 0B0F AB0F  E8            XSPAC	INX
  144: 0B10 AB10  CA            XSPAC2	DEX
  145: 0B11 AB11  D0 06         	BNE XSPAC1
  146: 0B13 AB13  20 73 00      NOTABR	JSR CHRGET
  147: 0B16 AB16  4C A2 AA      	JMP PRINTC
  148:                          
 FILE: basic.a65
 FILE: code7.a65
    1:                          
    2: 0B19 AB19  20 3B AB      XSPAC1	JSR OUTSPC
    3: 0B1C AB1C  D0 F2         	BNE XSPAC2
    4: 0B1E AB1E  20 87 B4      STROUT	JSR STRLIT
    5: 0B21 AB21  20 A6 B6      STRPRT	JSR FREFAC
    6: 0B24 AB24  AA            	TAX
    7: 0B25 AB25  A0 00         	LDY #0
    8: 0B27 AB27  E8            	INX
    9: 0B28 AB28  CA            STRPR2	DEX
   10: 0B29 AB29  F0 BC         	BEQ PRTRTS
   11: 0B2B AB2B  B1 22         	LDA (INDEX),Y
   12: 0B2D AB2D  20 47 AB      	JSR OUTDO
   13: 0B30 AB30  C8            	INY
   14: 0B31 AB31  C9 0D         	CMP #13
   15: 0B33 AB33  D0 F3         	BNE STRPR2
   16: 0B35 AB35  20 E5 AA      	JSR CRFIN
   17: 0B38 AB38  4C 28 AB      	JMP STRPR2
   18:                          OUTSPC
   19: 0B3B AB3B  A5 13         	LDA CHANNL
   20: 0B3D AB3D  F0 03         	BEQ CRTSKP
   21: 0B3F AB3F  A9 20         	LDA #' '
   22: 0B41 AB41  2C            	.BYTE $2C
   23: 0B42 AB42  A9 1D         CRTSKP	LDA #29
   24: 0B44 AB44  2C            	.BYTE $2C
   25: 0B45 AB45  A9 3F         OUTQST	LDA #'?'
   26: 0B47 AB47  20 0C E1      OUTDO	JSR OUTCH
   27: 0B4A AB4A  29 FF         OUTRTS	AND #255
   28: 0B4C AB4C  60            	RTS
   29: 0B4D AB4D  A5 11         TRMNOK	LDA INPFLG
   30: 0B4F AB4F  F0 11         	BEQ TRMNO1
   31: 0B51 AB51  30 04         	BMI GETDTL
   32: 0B53 AB53  A0 FF         	LDY #255
   33: 0B55 AB55  D0 04         	BNE STCURL
   34: 0B57 AB57  A5 3F         GETDTL	LDA DATLIN
   35: 0B59 AB59  A4 40         	LDY DATLIN+1
   36: 0B5B AB5B  85 39         STCURL	STA CURLIN
   37: 0B5D AB5D  84 3A         	STY CURLIN+1
   38: 0B5F AB5F  4C 08 AF      SNERR4	JMP SNERR
   39: 0B62 AB62  A5 13         TRMNO1	LDA CHANNL
   40: 0B64 AB64  F0 05         	BEQ DOAGIN
   41: 0B66 AB66  A2 18         	LDX #ERRBD
   42: 0B68 AB68  4C 37 A4      	JMP ERROR
   43: 0B6B AB6B  A9 0C         DOAGIN	LDA #<TRYAGN
   44: 0B6D AB6D  A0 AD         	LDY #>TRYAGN
   45: 0B6F AB6F  20 1E AB      	JSR STROUT
   46: 0B72 AB72  A5 3D         	LDA OLDTXT
   47: 0B74 AB74  A4 3E         	LDY OLDTXT+1
   48: 0B76 AB76  85 7A         	STA TXTPTR
   49: 0B78 AB78  84 7B         	STY TXTPTR+1
   50: 0B7A AB7A  60            	RTS
   51: 0B7B AB7B  20 A6 B3      GET	JSR ERRDIR
   52: 0B7E AB7E  C9 23         	CMP #'#'
   53: 0B80 AB80  D0 10         	BNE GETTTY
   54: 0B82 AB82  20 73 00      	JSR CHRGET
   55: 0B85 AB85  20 9E B7      	JSR GETBYT
   56: 0B88 AB88  A9 2C         	LDA #44
   57: 0B8A AB8A  20 FF AE      	JSR SYNCHR
   58: 0B8D AB8D  86 13         	STX CHANNL
   59: 0B8F AB8F  20 1E E1      	JSR COIN
   60:                          ZZ2=BUF+1
   61: 0B92 AB92  A2 01         GETTTY	LDX #<ZZ2
   62:                          ZZ3=BUF+2
   63: 0B94 AB94  A0 02         	LDY #>ZZ3
   64: 0B96 AB96  A9 00         	LDA #0
   65: 0B98 AB98  8D 01 02      	STA BUF+1
   66: 0B9B AB9B  A9 40         	LDA #64
   67: 0B9D AB9D  20 0F AC      	JSR INPCO1
   68: 0BA0 ABA0  A6 13         	LDX CHANNL
   69: 0BA2 ABA2  D0 13         	BNE IORELE
   70: 0BA4 ABA4  60            	RTS
   71: 0BA5 ABA5  20 9E B7      INPUTN	JSR GETBYT
   72: 0BA8 ABA8  A9 2C         	LDA #44
   73: 0BAA ABAA  20 FF AE      	JSR SYNCHR
   74: 0BAD ABAD  86 13         	STX CHANNL
   75: 0BAF ABAF  20 1E E1      	JSR COIN
   76: 0BB2 ABB2  20 CE AB      	JSR NOTQTI
   77: 0BB5 ABB5  A5 13         IODONE	LDA CHANNL
   78: 0BB7 ABB7  20 CC FF      IORELE	JSR CLSCHN
   79: 0BBA ABBA  A2 00         	LDX #0
   80: 0BBC ABBC  86 13         	STX CHANNL
   81: 0BBE ABBE  60            	RTS
   82: 0BBF ABBF  C9 22         INPUT	CMP #34
   83: 0BC1 ABC1  D0 0B         	BNE NOTQTI
   84: 0BC3 ABC3  20 BD AE      	JSR STRTXT
   85: 0BC6 ABC6  A9 3B         	LDA #59
   86: 0BC8 ABC8  20 FF AE      	JSR SYNCHR
   87: 0BCB ABCB  20 21 AB      	JSR STRPRT
   88: 0BCE ABCE  20 A6 B3      NOTQTI	JSR ERRDIR
   89: 0BD1 ABD1  A9 2C         	LDA #44
   90: 0BD3 ABD3  8D FF 01      	STA BUF-1
   91: 0BD6 ABD6  20 F9 AB      GETAGN	JSR QINLIN
   92: 0BD9 ABD9  A5 13         	LDA CHANNL
   93: 0BDB ABDB  F0 0D         	BEQ BUFFUL
   94: 0BDD ABDD  20 B7 FF      	JSR READST
   95: 0BE0 ABE0  29 02         	AND #2
   96: 0BE2 ABE2  F0 06         	BEQ BUFFUL
   97: 0BE4 ABE4  20 B5 AB      	JSR IODONE
   98: 0BE7 ABE7  4C F8 A8      	JMP DATA
   99: 0BEA ABEA  AD 00 02      BUFFUL	LDA BUF
  100: 0BED ABED  D0 1E         	BNE INPCON
  101: 0BEF ABEF  A5 13         	LDA CHANNL
  102: 0BF1 ABF1  D0 E3         	BNE GETAGN
  103: 0BF3 ABF3  20 06 A9      	JSR DATAN
  104: 0BF6 ABF6  4C FB A8      	JMP ADDON
  105: 0BF9 ABF9  A5 13         QINLIN	LDA CHANNL
  106: 0BFB ABFB  D0 06         	BNE GINLIN
  107: 0BFD ABFD  20 45 AB      	JSR OUTQST
  108: 0C00 AC00  20 3B AB      	JSR OUTSPC
  109: 0C03 AC03  4C 60 A5      GINLIN	JMP INLIN
  110: 0C06 AC06  A6 41         READ	LDX DATPTR
  111: 0C08 AC08  A4 42         	LDY DATPTR+1
  112: 0C0A AC0A  A9            	.BYTE $A9
  113: 0C0B AC0B  98            	TYA
  114: 0C0C AC0C  2C            	.BYTE $2C
  115: 0C0D AC0D  A9 00         INPCON	LDA #0
  116: 0C0F AC0F  85 11         INPCO1	STA INPFLG
  117: 0C11 AC11  86 43         	STX INPPTR
  118: 0C13 AC13  84 44         	STY INPPTR+1
  119: 0C15 AC15  20 8B B0      INLOOP	JSR PTRGET
  120: 0C18 AC18  85 49         	STA FORPNT
  121: 0C1A AC1A  84 4A         	STY FORPNT+1
  122: 0C1C AC1C  A5 7A         	LDA TXTPTR
  123: 0C1E AC1E  A4 7B         	LDY TXTPTR+1
  124: 0C20 AC20  85 4B         	STA VARTXT
  125: 0C22 AC22  84 4C         	STY VARTXT+1
  126: 0C24 AC24  A6 43         	LDX INPPTR
  127: 0C26 AC26  A4 44         	LDY INPPTR+1
  128: 0C28 AC28  86 7A         	STX TXTPTR
  129: 0C2A AC2A  84 7B         	STY TXTPTR+1
  130: 0C2C AC2C  20 79 00      	JSR CHRGOT
  131: 0C2F AC2F  D0 20         	BNE DATBK1
  132: 0C31 AC31  24 11         	BIT INPFLG
  133: 0C33 AC33  50 0C         	BVC QDATA
  134: 0C35 AC35  20 24 E1      	JSR CGETL
  135: 0C38 AC38  8D 00 02      	STA BUF
  136:                          ZZ4=BUF-1
  137: 0C3B AC3B  A2 FF         	LDX #<ZZ4
  138: 0C3D AC3D  A0 01         	LDY #>ZZ4
  139: 0C3F AC3F  D0 0C         	BNE DATBK
  140: 0C41 AC41  30 75         QDATA	BMI DATLOP
  141: 0C43 AC43  A5 13         	LDA CHANNL
  142: 0C45 AC45  D0 03         	BNE GETNTH
  143: 0C47 AC47  20 45 AB      	JSR OUTQST
  144: 0C4A AC4A  20 F9 AB      GETNTH	JSR QINLIN
  145: 0C4D AC4D  86 7A         DATBK	STX TXTPTR
  146: 0C4F AC4F  84 7B         	STY TXTPTR+1
  147:                          
 FILE: basic.a65
 FILE: code8.a65
    1:                          
    2: 0C51 AC51  20 73 00      DATBK1	JSR CHRGET
    3: 0C54 AC54  24 0D         	BIT VALTYP
    4: 0C56 AC56  10 31         	BPL NUMINS
    5: 0C58 AC58  24 11         	BIT INPFLG
    6: 0C5A AC5A  50 09         	BVC SETQUT
    7: 0C5C AC5C  E8            	INX
    8: 0C5D AC5D  86 7A         	STX TXTPTR
    9: 0C5F AC5F  A9 00         	LDA #0
   10: 0C61 AC61  85 07         	STA CHARAC
   11: 0C63 AC63  F0 0C         	BEQ RESETC
   12: 0C65 AC65  85 07         SETQUT	STA CHARAC
   13: 0C67 AC67  C9 22         	CMP #34
   14: 0C69 AC69  F0 07         	BEQ NOWGET
   15: 0C6B AC6B  A9 3A         	LDA #':'
   16: 0C6D AC6D  85 07         	STA CHARAC
   17: 0C6F AC6F  A9 2C         	LDA #44
   18: 0C71 AC71  18            RESETC	CLC
   19: 0C72 AC72  85 08         NOWGET	STA ENDCHR
   20: 0C74 AC74  A5 7A         	LDA TXTPTR
   21: 0C76 AC76  A4 7B         	LDY TXTPTR+1
   22: 0C78 AC78  69 00         	ADC #0
   23: 0C7A AC7A  90 01         	BCC NOWGE1
   24: 0C7C AC7C  C8            	INY
   25: 0C7D AC7D  20 8D B4      NOWGE1	JSR STRLT2
   26: 0C80 AC80  20 E2 B7      	JSR ST2TXT
   27: 0C83 AC83  20 DA A9      	JSR INPCOM
   28: 0C86 AC86  4C 91 AC      	JMP STRDN2
   29: 0C89 AC89  20 F3 BC      NUMINS	JSR FIN
   30: 0C8C AC8C  A5 0E         	LDA INTFLG
   31: 0C8E AC8E  20 C2 A9      	JSR QINTGR
   32: 0C91 AC91  20 79 00      STRDN2	JSR CHRGOT
   33: 0C94 AC94  F0 07         	BEQ TRMOK
   34: 0C96 AC96  C9 2C         	CMP #44
   35: 0C98 AC98  F0 03         	BEQ @+5
   36: 0C9A AC9A  4C 4D AB      	JMP TRMNOK
   37: 0C9D AC9D  A5 7A         TRMOK	LDA TXTPTR
   38: 0C9F AC9F  A4 7B         	LDY TXTPTR+1
   39: 0CA1 ACA1  85 43         	STA INPPTR
   40: 0CA3 ACA3  84 44         	STY INPPTR+1
   41: 0CA5 ACA5  A5 4B         	LDA VARTXT
   42: 0CA7 ACA7  A4 4C         	LDY VARTXT+1
   43: 0CA9 ACA9  85 7A         	STA TXTPTR
   44: 0CAB ACAB  84 7B         	STY TXTPTR+1
   45: 0CAD ACAD  20 79 00      	JSR CHRGOT
   46: 0CB0 ACB0  F0 2D         	BEQ VAREND
   47: 0CB2 ACB2  20 FD AE      	JSR CHKCOM
   48: 0CB5 ACB5  4C 15 AC      	JMP INLOOP
   49: 0CB8 ACB8  20 06 A9      DATLOP	JSR DATAN
   50: 0CBB ACBB  C8            	INY
   51: 0CBC ACBC  AA            	TAX
   52: 0CBD ACBD  D0 12         	BNE NOWLIN
   53: 0CBF ACBF  A2 0D         	LDX #ERROD
   54: 0CC1 ACC1  C8            	INY
   55: 0CC2 ACC2  B1 7A         	LDA (TXTPTR),Y
   56: 0CC4 ACC4  F0 6C         	BEQ ERRGO5
   57: 0CC6 ACC6  C8            	INY
   58: 0CC7 ACC7  B1 7A         	LDA (TXTPTR),Y
   59: 0CC9 ACC9  85 3F         	STA DATLIN
   60: 0CCB ACCB  C8            	INY
   61: 0CCC ACCC  B1 7A         	LDA (TXTPTR),Y
   62: 0CCE ACCE  C8            	INY
   63: 0CCF ACCF  85 40         	STA DATLIN+1
   64: 0CD1 ACD1  20 FB A8      NOWLIN	JSR ADDON       ;TXTPTR+.Y
   65: 0CD4 ACD4  20 79 00      	JSR CHRGOT      ;SPAN BLANKS
   66: 0CD7 ACD7  AA            	TAX             ;USED LATER
   67: 0CD8 ACD8  E0 83         	CPX #DATATK
   68: 0CDA ACDA  D0 DC         	BNE DATLOP
   69: 0CDC ACDC  4C 51 AC      	JMP DATBK1
   70: 0CDF ACDF  A5 43         VAREND	LDA INPPTR
   71: 0CE1 ACE1  A4 44         	LDY INPPTR+1
   72: 0CE3 ACE3  A6 11         	LDX INPFLG
   73: 0CE5 ACE5  10 03         	BPL VARY0
   74: 0CE7 ACE7  4C 27 A8      	JMP RESFIN
   75: 0CEA ACEA  A0 00         VARY0	LDY #0
   76: 0CEC ACEC  B1 43         	LDA (INPPTR),Y
   77: 0CEE ACEE  F0 0B         	BEQ INPRTS
   78: 0CF0 ACF0  A5 13         	LDA CHANNL
   79: 0CF2 ACF2  D0 07         	BNE INPRTS
   80: 0CF4 ACF4  A9 FC         	LDA #<EXIGNT
   81: 0CF6 ACF6  A0 AC         	LDY #>EXIGNT
   82: 0CF8 ACF8  4C 1E AB      	JMP STROUT
   83: 0CFB ACFB  60            INPRTS	RTS
   84: 0CFC ACFC  3F 45 58 ...  EXIGNT	.BYTE "?EXTRA IGNORED"
   85: 0D0A AD0A  0D            	.BYTE $D
   86: 0D0B AD0B  00            	.BYTE 0
   87: 0D0C AD0C  3F 52 45 ...  TRYAGN	.BYTE "?REDO FROM START"
   88: 0D1C AD1C  0D            	.BYTE $D
   89: 0D1D AD1D  00            	.BYTE 0
   90: 0D1E AD1E  D0 04         NEXT	BNE GETFOR
   91: 0D20 AD20  A0 00         	LDY #0
   92: 0D22 AD22  F0 03         	BEQ STXFOR
   93: 0D24 AD24  20 8B B0      GETFOR	JSR PTRGET
   94: 0D27 AD27  85 49         STXFOR	STA FORPNT
   95: 0D29 AD29  84 4A         	STY FORPNT+1
   96: 0D2B AD2B  20 8A A3      	JSR FNDFOR
   97: 0D2E AD2E  F0 05         	BEQ HAVFOR
   98: 0D30 AD30  A2 0A         	LDX #ERRNF
   99: 0D32 AD32  4C 37 A4      ERRGO5	JMP ERROR       ;CHANGE
  100: 0D35 AD35  9A            HAVFOR	TXS
  101: 0D36 AD36  8A            	TXA
  102: 0D37 AD37  18            	CLC
  103: 0D38 AD38  69 04         	ADC #4
  104: 0D3A AD3A  48            	PHA
  105: 0D3B AD3B  69 06         	ADC #5+ADDPRC
  106: 0D3D AD3D  85 24         	STA INDEX2
  107: 0D3F AD3F  68            	PLA
  108: 0D40 AD40  A0 01         	LDY #1
  109: 0D42 AD42  20 A2 BB      	JSR MOVFM
  110: 0D45 AD45  BA            	TSX
  111: 0D46 AD46  BD 09 01      	LDA ADDPRC+264,X
  112: 0D49 AD49  85 66         	STA FACSGN
  113: 0D4B AD4B  A5 49         	LDA FORPNT
  114: 0D4D AD4D  A4 4A         	LDY FORPNT+1
  115: 0D4F AD4F  20 67 B8      	JSR FADD
  116: 0D52 AD52  20 D0 BB      	JSR MOVVF
  117: 0D55 AD55  A0 01         	LDY #1
  118: 0D57 AD57  20 5D BC      	JSR FCOMPN
  119: 0D5A AD5A  BA            	TSX
  120: 0D5B AD5B  38            	SEC
  121: 0D5C AD5C  FD 09 01      	SBC ADDPRC+264,X
  122: 0D5F AD5F  F0 17         	BEQ LOOPDN
  123: 0D61 AD61  BD 0F 01      	LDA 269+ADDPRC+ADDPRC,X
  124: 0D64 AD64  85 39         	STA CURLIN
  125: 0D66 AD66  BD 10 01      	LDA 270+ADDPRC+ADDPRC,X
  126: 0D69 AD69  85 3A         	STA CURLIN+1
  127: 0D6B AD6B  BD 12 01      	LDA 272+ADDPRC+ADDPRC,X
  128: 0D6E AD6E  85 7A         	STA TXTPTR
  129: 0D70 AD70  BD 11 01      	LDA 271+ADDPRC+ADDPRC,X
  130: 0D73 AD73  85 7B         	STA TXTPTR+1
  131: 0D75 AD75  4C AE A7      NEWSGO	JMP NEWSTT
  132: 0D78 AD78  8A            LOOPDN	TXA
  133: 0D79 AD79  69 11         	ADC #15+ADDPRC+ADDPRC
  134: 0D7B AD7B  AA            	TAX
  135: 0D7C AD7C  9A            	TXS 
  136: 0D7D AD7D  20 79 00      	JSR CHRGOT
  137: 0D80 AD80  C9 2C         	CMP #44
  138: 0D82 AD82  D0 F1         	BNE NEWSGO
  139: 0D84 AD84  20 73 00      	JSR CHRGET
  140: 0D87 AD87  20 24 AD      	JSR GETFOR
  141: 0D8A AD8A  20 9E AD      FRMNUM	JSR FRMEVL
  142: 0D8D AD8D  18            CHKNUM	CLC
  143: 0D8E AD8E  24            	.BYTE $24
  144: 0D8F AD8F  38            CHKSTR	SEC
  145: 0D90 AD90  24 0D         CHKVAL	BIT VALTYP
  146:                          
 FILE: basic.a65
 FILE: code9.a65
    1:                          
    2: 0D92 AD92  30 03         	BMI DOCSTR
    3: 0D94 AD94  B0 03         	BCS CHKERR
    4: 0D96 AD96  60            CHKOK	RTS
    5: 0D97 AD97  B0 FD         DOCSTR	BCS CHKOK
    6: 0D99 AD99  A2 16         CHKERR	LDX #ERRTM
    7: 0D9B AD9B  4C 37 A4      ERRGO4	JMP ERROR
    8: 0D9E AD9E  A6 7A         FRMEVL	LDX TXTPTR
    9: 0DA0 ADA0  D0 02         	BNE FRMEV1
   10: 0DA2 ADA2  C6 7B         	DEC TXTPTR+1
   11: 0DA4 ADA4  C6 7A         FRMEV1	DEC TXTPTR
   12: 0DA6 ADA6  A2 00         	LDX #0
   13: 0DA8 ADA8  24            	.BYTE $24
   14: 0DA9 ADA9  48            LPOPER	PHA
   15: 0DAA ADAA  8A            	TXA
   16: 0DAB ADAB  48            	PHA
   17: 0DAC ADAC  A9 01         	LDA #1
   18: 0DAE ADAE  20 FB A3      	JSR GETSTK
   19: 0DB1 ADB1  20 83 AE      	JSR EVAL
   20: 0DB4 ADB4  A9 00         	LDA #0
   21: 0DB6 ADB6  85 4D         	STA OPMASK
   22: 0DB8 ADB8  20 79 00      TSTOP	JSR CHRGOT
   23: 0DBB ADBB  38            LOPREL	SEC
   24: 0DBC ADBC  E9 B1         	SBC #GREATK
   25: 0DBE ADBE  90 17         	BCC ENDREL
   26: 0DC0 ADC0  C9 03         	CMP #LESSTK-GREATK+1
   27: 0DC2 ADC2  B0 13         	BCS ENDREL
   28: 0DC4 ADC4  C9 01         	CMP #1
   29: 0DC6 ADC6  2A            	ROL
   30: 0DC7 ADC7  49 01         	EOR #1
   31: 0DC9 ADC9  45 4D         	EOR OPMASK
   32: 0DCB ADCB  C5 4D         	CMP OPMASK
   33: 0DCD ADCD  90 61         	BCC SNERR5
   34: 0DCF ADCF  85 4D         	STA OPMASK
   35: 0DD1 ADD1  20 73 00      	JSR CHRGET
   36: 0DD4 ADD4  4C BB AD      	JMP LOPREL
   37: 0DD7 ADD7  A6 4D         ENDREL	LDX OPMASK
   38: 0DD9 ADD9  D0 2C         	BNE FINREL
   39: 0DDB ADDB  B0 7B         	BCS QOP
   40: 0DDD ADDD  69 07         	ADC #GREATK-PLUSTK
   41: 0DDF ADDF  90 77         	BCC QOP
   42: 0DE1 ADE1  65 0D         	ADC VALTYP
   43: 0DE3 ADE3  D0 03         	BNE @+5
   44: 0DE5 ADE5  4C 3D B6      	JMP CAT
   45: 0DE8 ADE8  69 FF         	ADC #$FF
   46: 0DEA ADEA  85 22         	STA INDEX1
   47: 0DEC ADEC  0A            	ASL
   48: 0DED ADED  65 22         	ADC INDEX1
   49: 0DEF ADEF  A8            	TAY 
   50: 0DF0 ADF0  68            QPREC	PLA
   51: 0DF1 ADF1  D9 80 A0      	CMP OPTAB,Y
   52: 0DF4 ADF4  B0 67         	BCS QCHNUM
   53: 0DF6 ADF6  20 8D AD      	JSR CHKNUM
   54: 0DF9 ADF9  48            DOPREC	PHA
   55: 0DFA ADFA  20 20 AE      NEGPRC	JSR DOPRE1
   56: 0DFD ADFD  68            	PLA
   57: 0DFE ADFE  A4 4B         	LDY OPPTR
   58: 0E00 AE00  10 17         	BPL QPREC1
   59: 0E02 AE02  AA            	TAX
   60: 0E03 AE03  F0 56         	BEQ QOPGO
   61: 0E05 AE05  D0 5F         	BNE PULSTK
   62: 0E07 AE07  46 0D         FINREL	LSR VALTYP
   63: 0E09 AE09  8A            	TXA
   64: 0E0A AE0A  2A            	ROL
   65: 0E0B AE0B  A6 7A         	LDX TXTPTR
   66: 0E0D AE0D  D0 02         	BNE FINRE2
   67: 0E0F AE0F  C6 7B         	DEC TXTPTR+1
   68: 0E11 AE11  C6 7A         FINRE2	DEC TXTPTR
   69: 0E13 AE13  A0 1B         	LDY #PTDORL-OPTAB
   70: 0E15 AE15  85 4D         	STA OPMASK
   71: 0E17 AE17  D0 D7         	BNE QPREC
   72: 0E19 AE19  D9 80 A0      QPREC1	CMP OPTAB,Y
   73: 0E1C AE1C  B0 48         	BCS PULSTK
   74: 0E1E AE1E  90 D9         	BCC DOPREC
   75: 0E20 AE20  B9 82 A0      DOPRE1	LDA OPTAB+2,Y
   76: 0E23 AE23  48            	PHA
   77: 0E24 AE24  B9 81 A0      	LDA OPTAB+1,Y
   78: 0E27 AE27  48            	PHA
   79: 0E28 AE28  20 33 AE      	JSR PUSHF1
   80: 0E2B AE2B  A5 4D         	LDA OPMASK
   81: 0E2D AE2D  4C A9 AD      	JMP LPOPER
   82: 0E30 AE30  4C 08 AF      SNERR5	JMP SNERR
   83: 0E33 AE33  A5 66         PUSHF1	LDA FACSGN
   84: 0E35 AE35  BE 80 A0      	LDX OPTAB,Y
   85: 0E38 AE38  A8            PUSHF	TAY
   86: 0E39 AE39  68            	PLA
   87: 0E3A AE3A  85 22         	STA INDEX1
   88: 0E3C AE3C  E6 22         	INC INDEX1
   89: 0E3E AE3E  68            	PLA
   90: 0E3F AE3F  85 23         	STA INDEX1+1
   91: 0E41 AE41  98            	TYA
   92: 0E42 AE42  48            	PHA
   93: 0E43 AE43  20 1B BC      FORPSH	JSR ROUND
   94: 0E46 AE46  A5 65         	LDA FACLO
   95: 0E48 AE48  48            	PHA
   96: 0E49 AE49  A5 64         	LDA FACMO
   97: 0E4B AE4B  48            	PHA
   98: 0E4C AE4C  A5 63         	LDA FACMOH
   99: 0E4E AE4E  48            	PHA
  100: 0E4F AE4F  A5 62         	LDA FACHO
  101: 0E51 AE51  48            	PHA
  102: 0E52 AE52  A5 61         	LDA FACEXP
  103: 0E54 AE54  48            	PHA
  104: 0E55 AE55  6C 22 00      	JMP (INDEX1)
  105: 0E58 AE58  A0 FF         QOP	LDY #255
  106: 0E5A AE5A  68            	PLA
  107: 0E5B AE5B  F0 23         QOPGO	BEQ QOPRTS
  108: 0E5D AE5D  C9 64         QCHNUM	CMP #100
  109: 0E5F AE5F  F0 03         	BEQ UNPSTK
  110: 0E61 AE61  20 8D AD      	JSR CHKNUM
  111: 0E64 AE64  84 4B         UNPSTK	STY OPPTR
  112: 0E66 AE66  68            PULSTK	PLA
  113: 0E67 AE67  4A            	LSR
  114: 0E68 AE68  85 12         	STA DOMASK
  115: 0E6A AE6A  68            	PLA
  116: 0E6B AE6B  85 69         	STA ARGEXP
  117: 0E6D AE6D  68            	PLA
  118: 0E6E AE6E  85 6A         	STA ARGHO
  119: 0E70 AE70  68            	PLA
  120: 0E71 AE71  85 6B         	STA ARGMOH
  121: 0E73 AE73  68            	PLA
  122: 0E74 AE74  85 6C         	STA ARGMO
  123: 0E76 AE76  68            	PLA
  124: 0E77 AE77  85 6D         	STA ARGLO
  125: 0E79 AE79  68            	PLA
  126: 0E7A AE7A  85 6E         	STA ARGSGN
  127: 0E7C AE7C  45 66         	EOR FACSGN
  128: 0E7E AE7E  85 6F         	STA ARISGN
  129: 0E80 AE80  A5 61         QOPRTS	LDA FACEXP
  130: 0E82 AE82  60            UNPRTS	RTS
  131:                          
  132: 0E83 AE83  6C 0A 03      EVAL	JMP (IEVAL)
  133: 0E86 AE86  A9 00         NEVAL	LDA #0
  134: 0E88 AE88  85 0D         	STA VALTYP
  135: 0E8A AE8A  20 73 00      EVAL0	JSR CHRGET
  136: 0E8D AE8D  B0 03         	BCS EVAL2
  137: 0E8F AE8F  4C F3 BC      EVAL1	JMP FIN
  138: 0E92 AE92  20 13 B1      EVAL2	JSR ISLETC
  139: 0E95 AE95  90 03         	BCC @+5
  140: 0E97 AE97  4C 28 AF      	JMP ISVAR
  141: 0E9A AE9A  C9 FF         	CMP #PI
  142: 0E9C AE9C  D0 0F         	BNE QDOT
  143: 0E9E AE9E  A9 A8         	LDA #<PIVAL
  144: 0EA0 AEA0  A0 AE         	LDY #>PIVAL
  145: 0EA2 AEA2  20 A2 BB      	JSR MOVFM
  146: 0EA5 AEA5  4C 73 00      	JMP CHRGET
  147: 0EA8 AEA8  82            PIVAL	.BYTE $82
  148: 0EA9 AEA9  49            	.BYTE $49
  149: 0EAA AEAA  0F            	.BYTE $0F
  150: 0EAB AEAB  DA            	.BYTE $DA
  151: 0EAC AEAC  A1            	.BYTE $A1
  152: 0EAD AEAD  C9 2E         QDOT	CMP #'.'
  153: 0EAF AEAF  F0 DE         	BEQ EVAL1
  154: 0EB1 AEB1  C9 AB         	CMP #MINUTK
  155: 0EB3 AEB3  F0 58         	BEQ DOMIN
  156: 0EB5 AEB5  C9 AA         	CMP #PLUSTK
  157: 0EB7 AEB7  F0 D1         	BEQ EVAL0
  158: 0EB9 AEB9  C9 22         	CMP #34
  159: 0EBB AEBB  D0 0F         	BNE EVAL3
  160: 0EBD AEBD  A5 7A         STRTXT	LDA TXTPTR
  161: 0EBF AEBF  A4 7B         	LDY TXTPTR+1
  162: 0EC1 AEC1  69 00         	ADC #0
  163: 0EC3 AEC3  90 01         	BCC STRTX2
  164: 0EC5 AEC5  C8            	INY
  165: 0EC6 AEC6  20 87 B4      STRTX2	JSR STRLIT
  166: 0EC9 AEC9  4C E2 B7      	JMP ST2TXT
  167: 0ECC AECC  C9 A8         EVAL3	CMP #NOTTK
  168: 0ECE AECE  D0 13         	BNE EVAL4
  169: 0ED0 AED0  A0 18         	LDY #24
  170: 0ED2 AED2  D0 3B         	BNE GONPRC
  171: 0ED4 AED4  20 BF B1      NOTOP	JSR AYINT
  172: 0ED7 AED7  A5 65         	LDA FACLO
  173: 0ED9 AED9  49 FF         	EOR #255
  174: 0EDB AEDB  A8            	TAY
  175: 0EDC AEDC  A5 64         	LDA FACMO
  176: 0EDE AEDE  49 FF         	EOR #255
  177: 0EE0 AEE0  4C 91 B3      	JMP GIVAYF
  178: 0EE3 AEE3  C9 A5         EVAL4	CMP #FNTK
  179: 0EE5 AEE5  D0 03         	BNE @+5
  180: 0EE7 AEE7  4C F4 B3      	JMP FNDOER
  181: 0EEA AEEA  C9 B4         	CMP #ONEFUN
  182: 0EEC AEEC  90 03         	BCC PARCHK
  183: 0EEE AEEE  4C A7 AF      	JMP ISFUN
  184: 0EF1 AEF1  20 FA AE      PARCHK	JSR CHKOPN
  185: 0EF4 AEF4  20 9E AD      	JSR FRMEVL
  186: 0EF7 AEF7  A9 29         CHKCLS	LDA #41
  187: 0EF9 AEF9  2C            	.BYTE $2C
  188: 0EFA AEFA  A9 28         CHKOPN	LDA #40
  189: 0EFC AEFC  2C            	.BYTE $2C
  190: 0EFD AEFD  A9 2C         CHKCOM	LDA #44
  191: 0EFF AEFF  A0 00         SYNCHR	LDY #0
  192: 0F01 AF01  D1 7A         	CMP (TXTPTR),Y
  193: 0F03 AF03  D0 03         	BNE SNERR
  194: 0F05 AF05  4C 73 00      	JMP CHRGET
  195: 0F08 AF08  A2 0B         SNERR	LDX #ERRSN
  196: 0F0A AF0A  4C 37 A4      	JMP ERROR
  197: 0F0D AF0D  A0 15         DOMIN	LDY #21
  198: 0F0F AF0F  68            GONPRC	PLA
  199: 0F10 AF10  68            	PLA
  200: 0F11 AF11  4C FA AD      	JMP NEGPRC
  201:                          
 FILE: basic.a65
 FILE: code10.a65
    1:                          
    2:                          ;TEST POINTER TO VARIABLE TO SEE
    3:                          ;IF CONSTANT IS CONTAINED IN BASIC.
    4:                          ;ARRAY VARIABLES HAVE ZEROES PLACED
    5:                          ;IN RAM. UNDEFINED SIMPLE VARIABLES
    6:                          ;HAVE POINTER T ZERO IN BASIC.
    7:                          ;
    8: 0F14 AF14  38            TSTROM	SEC
    9: 0F15 AF15  A5 64         	LDA FACMO
   10: 0F17 AF17  E9 00         	SBC #<ROMLOC
   11: 0F19 AF19  A5 65         	LDA FACLO
   12: 0F1B AF1B  E9 A0         	SBC #>ROMLOC
   13: 0F1D AF1D  90 08         	BCC TSTR10
   14:                          ;
   15: 0F1F AF1F  A9 A2         	LDA #<INITAT
   16: 0F21 AF21  E5 64         	SBC FACMO
   17: 0F23 AF23  A9 E3         	LDA #>INITAT
   18: 0F25 AF25  E5 65         	SBC FACLO
   19:                          ;
   20: 0F27 AF27  60            TSTR10	RTS
   21:                          
   22: 0F28 AF28  20 8B B0      ISVAR	JSR PTRGET
   23: 0F2B AF2B  85 64         ISVRET	STA FACMO
   24: 0F2D AF2D  84 65         	STY FACMO+1
   25: 0F2F AF2F  A6 45         	LDX VARNAM
   26: 0F31 AF31  A4 46         	LDY VARNAM+1
   27: 0F33 AF33  A5 0D         	LDA VALTYP
   28: 0F35 AF35  F0 26         	BEQ GOOO
   29: 0F37 AF37  A9 00         	LDA #0
   30: 0F39 AF39  85 70         	STA FACOV
   31: 0F3B AF3B  20 14 AF      	JSR TSTROM      ;SEE IF AN ARRAY
   32: 0F3E AF3E  90 1C         	BCC STRRTS      ;DON'T TEST ST(I),TI(I)
   33: 0F40 AF40  E0 54         	CPX #'T'
   34: 0F42 AF42  D0 18         	BNE STRRTS
   35: 0F44 AF44  C0 C9         	CPY #$C9
   36: 0F46 AF46  D0 14         	BNE STRRTS
   37: 0F48 AF48  20 84 AF      	JSR GETTIM
   38: 0F4B AF4B  84 5E         	STY TENEXP
   39: 0F4D AF4D  88            	DEY
   40: 0F4E AF4E  84 71         	STY FBUFPT
   41: 0F50 AF50  A0 06         	LDY #6
   42: 0F52 AF52  84 5D         	STY DECCNT
   43: 0F54 AF54  A0 24         	LDY #FDCEND-FOUTBL
   44: 0F56 AF56  20 68 BE      	JSR FOUTIM
   45: 0F59 AF59  4C 6F B4      	JMP TIMSTR
   46: 0F5C AF5C  60            STRRTS	RTS
   47: 0F5D AF5D  24 0E         GOOO	BIT INTFLG
   48: 0F5F AF5F  10 0D         	BPL GOOOOO
   49: 0F61 AF61  A0 00         	LDY #0
   50: 0F63 AF63  B1 64         	LDA (FACMO),Y
   51: 0F65 AF65  AA            	TAX
   52: 0F66 AF66  C8            	INY
   53: 0F67 AF67  B1 64         	LDA (FACMO),Y
   54: 0F69 AF69  A8            	TAY
   55: 0F6A AF6A  8A            	TXA
   56: 0F6B AF6B  4C 91 B3      	JMP GIVAYF
   57: 0F6E AF6E  20 14 AF      GOOOOO	JSR TSTROM      ;SEE IF ARRAY
   58: 0F71 AF71  90 2D         	BCC GOMOVF      ;DON'T TEST ST(I),TI(I)
   59: 0F73 AF73  E0 54         	CPX #'T'
   60: 0F75 AF75  D0 1B         	BNE QSTATV
   61: 0F77 AF77  C0 49         	CPY #'I'
   62: 0F79 AF79  D0 25         	BNE GOMOVF
   63: 0F7B AF7B  20 84 AF      	JSR GETTIM
   64: 0F7E AF7E  98            	TYA
   65: 0F7F AF7F  A2 A0         	LDX #160
   66: 0F81 AF81  4C 4F BC      	JMP FLOATB
   67: 0F84 AF84  20 DE FF      GETTIM	JSR RDTIM
   68: 0F87 AF87  86 64         	STX FACMO
   69: 0F89 AF89  84 63         	STY FACMOH
   70: 0F8B AF8B  85 65         	STA FACLO
   71: 0F8D AF8D  A0 00         	LDY #0
   72: 0F8F AF8F  84 62         	STY FACHO
   73: 0F91 AF91  60            	RTS
   74: 0F92 AF92  E0 53         QSTATV	CPX #'S'
   75: 0F94 AF94  D0 0A         	BNE GOMOVF
   76: 0F96 AF96  C0 54         	CPY #'T'
   77: 0F98 AF98  D0 06         	BNE GOMOVF
   78: 0F9A AF9A  20 B7 FF      	JSR READST
   79: 0F9D AF9D  4C 3C BC      	JMP FLOAT
   80: 0FA0 AFA0  A5 64         GOMOVF	LDA FACMO
   81: 0FA2 AFA2  A4 65         	LDY FACMO+1
   82: 0FA4 AFA4  4C A2 BB      	JMP MOVFM
   83: 0FA7 AFA7  0A            ISFUN	ASL
   84: 0FA8 AFA8  48            	PHA
   85: 0FA9 AFA9  AA            	TAX
   86: 0FAA AFAA  20 73 00      	JSR CHRGET
   87: 0FAD AFAD  E0 8F         	CPX #LASNUM+LASNUM-255
   88: 0FAF AFAF  90 20         	BCC OKNORM
   89: 0FB1 AFB1  20 FA AE      	JSR CHKOPN
   90: 0FB4 AFB4  20 9E AD      	JSR FRMEVL
   91: 0FB7 AFB7  20 FD AE      	JSR CHKCOM
   92: 0FBA AFBA  20 8F AD      	JSR CHKSTR
   93: 0FBD AFBD  68            	PLA
   94: 0FBE AFBE  AA            	TAX
   95: 0FBF AFBF  A5 65         	LDA FACMO+1
   96: 0FC1 AFC1  48            	PHA
   97: 0FC2 AFC2  A5 64         	LDA FACMO
   98: 0FC4 AFC4  48            	PHA
   99: 0FC5 AFC5  8A            	TXA
  100: 0FC6 AFC6  48            	PHA
  101: 0FC7 AFC7  20 9E B7      	JSR GETBYT
  102: 0FCA AFCA  68            	PLA
  103: 0FCB AFCB  A8            	TAY
  104: 0FCC AFCC  8A            	TXA
  105: 0FCD AFCD  48            	PHA
  106: 0FCE AFCE  4C D6 AF      	JMP FINGO
  107: 0FD1 AFD1  20 F1 AE      OKNORM	JSR PARCHK
  108: 0FD4 AFD4  68            	PLA
  109: 0FD5 AFD5  A8            	TAY
  110: 0FD6 AFD6  B9 EA 9F      FINGO	LDA FUNDSP-ONEFUN-ONEFUN+256,Y
  111: 0FD9 AFD9  85 55         	STA JMPER+1
  112: 0FDB AFDB  B9 EB 9F      	LDA FUNDSP-ONEFUN-ONEFUN+257,Y
  113: 0FDE AFDE  85 56         	STA JMPER+2
  114: 0FE0 AFE0  20 54 00      	JSR JMPER
  115: 0FE3 AFE3  4C 8D AD      	JMP CHKNUM
  116: 0FE6 AFE6  A0 FF         OROP	LDY #255
  117: 0FE8 AFE8  2C            	.BYTE $2C
  118: 0FE9 AFE9  A0 00         ANDOP	LDY #0
  119: 0FEB AFEB  84 0B         	STY COUNT
  120: 0FED AFED  20 BF B1      	JSR AYINT
  121: 0FF0 AFF0  A5 64         	LDA FACMO
  122: 0FF2 AFF2  45 0B         	EOR COUNT
  123: 0FF4 AFF4  85 07         	STA INTEGR
  124: 0FF6 AFF6  A5 65         	LDA FACLO
  125: 0FF8 AFF8  45 0B         	EOR COUNT
  126: 0FFA AFFA  85 08         	STA INTEGR+1
  127: 0FFC AFFC  20 FC BB      	JSR MOVFA
  128: 0FFF AFFF  20 BF B1      	JSR AYINT
  129: 1002 B002  A5 65         	LDA FACLO
  130: 1004 B004  45 0B         	EOR COUNT
  131: 1006 B006  25 08         	AND INTEGR+1
  132: 1008 B008  45 0B         	EOR COUNT
  133: 100A B00A  A8            	TAY
  134: 100B B00B  A5 64         	LDA FACMO
  135: 100D B00D  45 0B         	EOR COUNT
  136: 100F B00F  25 07         	AND INTEGR
  137: 1011 B011  45 0B         	EOR COUNT
  138: 1013 B013  4C 91 B3      	JMP GIVAYF
  139: 1016 B016  20 90 AD      DOREL	JSR CHKVAL
  140: 1019 B019  B0 13         	BCS STRCMP
  141: 101B B01B  A5 6E         	LDA ARGSGN
  142: 101D B01D  09 7F         	ORA #127
  143: 101F B01F  25 6A         	AND ARGHO
  144: 1021 B021  85 6A         	STA ARGHO
  145: 1023 B023  A9 69         	LDA #<ARGEXP
  146: 1025 B025  A0 00         	LDY #>ARGEXP
  147: 1027 B027  20 5B BC      	JSR FCOMP
  148: 102A B02A  AA            	TAX
  149: 102B B02B  4C 61 B0      	JMP QCOMP
  150: 102E B02E  A9 00         STRCMP	LDA #0
  151: 1030 B030  85 0D         	STA VALTYP
  152: 1032 B032  C6 4D         	DEC OPMASK
  153: 1034 B034  20 A6 B6      	JSR FREFAC
  154: 1037 B037  85 61         	STA DSCTMP
  155: 1039 B039  86 62         	STX DSCTMP+1
  156: 103B B03B  84 63         	STY DSCTMP+2
  157: 103D B03D  A5 6C         	LDA ARGMO
  158: 103F B03F  A4 6D         	LDY ARGMO+1
  159: 1041 B041  20 AA B6      	JSR FRETMP
  160: 1044 B044  86 6C         	STX ARGMO
  161: 1046 B046  84 6D         	STY ARGMO+1
  162: 1048 B048  AA            	TAX
  163: 1049 B049  38            	SEC
  164: 104A B04A  E5 61         	SBC DSCTMP
  165: 104C B04C  F0 08         	BEQ STASGN
  166: 104E B04E  A9 01         	LDA #1
  167: 1050 B050  90 04         	BCC STASGN
  168: 1052 B052  A6 61         	LDX DSCTMP
  169: 1054 B054  A9 FF         	LDA #$FF
  170: 1056 B056  85 66         STASGN	STA FACSGN
  171: 1058 B058  A0 FF         	LDY #255
  172: 105A B05A  E8            	INX
  173: 105B B05B  C8            NXTCMP	INY
  174: 105C B05C  CA            	DEX
  175: 105D B05D  D0 07         	BNE GETCMP
  176: 105F B05F  A6 66         	LDX FACSGN
  177: 1061 B061  30 0F         QCOMP	BMI DOCMP
  178: 1063 B063  18            	CLC
  179: 1064 B064  90 0C         	BCC DOCMP
  180: 1066 B066  B1 6C         GETCMP	LDA (ARGMO),Y
  181:                          
 FILE: basic.a65
 FILE: code11.a65
    1:                          
    2: 1068 B068  D1 62         	CMP (DSCTMP+1),Y
    3: 106A B06A  F0 EF         	BEQ NXTCMP
    4: 106C B06C  A2 FF         	LDX #$FF
    5: 106E B06E  B0 02         	BCS DOCMP
    6: 1070 B070  A2 01         	LDX #1
    7: 1072 B072  E8            DOCMP	INX
    8: 1073 B073  8A            	TXA
    9: 1074 B074  2A            	ROL
   10: 1075 B075  25 12         	AND DOMASK
   11: 1077 B077  F0 02         	BEQ GOFLOT
   12: 1079 B079  A9 FF         	LDA #$FF
   13: 107B B07B  4C 3C BC      GOFLOT	JMP FLOAT
   14: 107E B07E  20 FD AE      DIM3	JSR CHKCOM
   15: 1081 B081  AA            DIM	TAX
   16: 1082 B082  20 90 B0      	JSR PTRGT1
   17: 1085 B085  20 79 00      	JSR CHRGOT
   18: 1088 B088  D0 F4         	BNE DIM3
   19: 108A B08A  60            	RTS
   20: 108B B08B  A2 00         PTRGET	LDX #0
   21: 108D B08D  20 79 00      	JSR CHRGOT
   22: 1090 B090  86 0C         PTRGT1	STX DIMFLG
   23: 1092 B092  85 45         PTRGT2	STA VARNAM
   24: 1094 B094  20 79 00      	JSR CHRGOT
   25: 1097 B097  20 13 B1      	JSR ISLETC
   26: 109A B09A  B0 03         	BCS PTRGT3
   27: 109C B09C  4C 08 AF      INTERR	JMP SNERR
   28: 109F B09F  A2 00         PTRGT3	LDX #0
   29: 10A1 B0A1  86 0D         	STX VALTYP
   30: 10A3 B0A3  86 0E         	STX INTFLG
   31: 10A5 B0A5  20 73 00      	JSR CHRGET
   32: 10A8 B0A8  90 05         	BCC ISSEC
   33: 10AA B0AA  20 13 B1      	JSR ISLETC
   34: 10AD B0AD  90 0B         	BCC NOSEC
   35: 10AF B0AF  AA            ISSEC	TAX
   36: 10B0 B0B0  20 73 00      EATEM	JSR CHRGET
   37: 10B3 B0B3  90 FB         	BCC EATEM
   38: 10B5 B0B5  20 13 B1      	JSR ISLETC
   39: 10B8 B0B8  B0 F6         	BCS EATEM
   40: 10BA B0BA  C9 24         NOSEC	CMP #'$'
   41: 10BC B0BC  D0 06         	BNE NOTSTR
   42: 10BE B0BE  A9 FF         	LDA #$FF
   43: 10C0 B0C0  85 0D         	STA VALTYP
   44: 10C2 B0C2  D0 10         	BNE TURNON
   45: 10C4 B0C4  C9 25         NOTSTR	CMP #'%'
   46: 10C6 B0C6  D0 13         	BNE STRNAM
   47: 10C8 B0C8  A5 10         	LDA SUBFLG
   48: 10CA B0CA  D0 D0         	BNE INTERR
   49: 10CC B0CC  A9 80         	LDA #128
   50: 10CE B0CE  85 0E         	STA INTFLG
   51: 10D0 B0D0  05 45         	ORA VARNAM
   52: 10D2 B0D2  85 45         	STA VARNAM
   53: 10D4 B0D4  8A            TURNON	TXA
   54: 10D5 B0D5  09 80         	ORA #128
   55: 10D7 B0D7  AA            	TAX
   56: 10D8 B0D8  20 73 00      	JSR CHRGET
   57: 10DB B0DB  86 46         STRNAM	STX VARNAM+1
   58: 10DD B0DD  38            	SEC
   59: 10DE B0DE  05 10         	ORA SUBFLG
   60: 10E0 B0E0  E9 28         	SBC #40
   61: 10E2 B0E2  D0 03         	BNE @+5
   62: 10E4 B0E4  4C D1 B1      	JMP ISARY
   63: 10E7 B0E7  A0 00         	LDY #0
   64: 10E9 B0E9  84 10         	STY SUBFLG
   65: 10EB B0EB  A5 2D         	LDA VARTAB
   66: 10ED B0ED  A6 2E         	LDX VARTAB+1
   67: 10EF B0EF  86 60         STXFND	STX LOWTR+1
   68: 10F1 B0F1  85 5F         LOPFND	STA LOWTR
   69: 10F3 B0F3  E4 30         	CPX ARYTAB+1
   70: 10F5 B0F5  D0 04         	BNE LOPFN
   71: 10F7 B0F7  C5 2F         	CMP ARYTAB
   72: 10F9 B0F9  F0 22         	BEQ NOTFNS
   73: 10FB B0FB  A5 45         LOPFN	LDA VARNAM
   74: 10FD B0FD  D1 5F         	CMP (LOWTR),Y
   75: 10FF B0FF  D0 08         	BNE NOTIT
   76: 1101 B101  A5 46         	LDA VARNAM+1
   77: 1103 B103  C8            	INY
   78: 1104 B104  D1 5F         	CMP (LOWTR),Y
   79: 1106 B106  F0 7D         	BEQ FINPTR
   80: 1108 B108  88            	DEY
   81: 1109 B109  18            NOTIT	CLC
   82: 110A B10A  A5 5F         	LDA LOWTR
   83: 110C B10C  69 07         	ADC #6+ADDPRC
   84: 110E B10E  90 E1         	BCC LOPFND
   85: 1110 B110  E8            	INX
   86: 1111 B111  D0 DC         	BNE STXFND
   87: 1113 B113  C9 41         ISLETC	CMP #'A'
   88: 1115 B115  90 05         	BCC ISLRTS
   89: 1117 B117  E9 5B         	SBC #$5B
   90: 1119 B119  38            	SEC
   91: 111A B11A  E9 A5         	SBC #$A5
   92: 111C B11C  60            ISLRTS	RTS
   93: 111D B11D  68            NOTFNS	PLA
   94: 111E B11E  48            	PHA
   95:                          ZZ6=ISVRET-1
   96: 111F B11F  C9 2A         	CMP #<ZZ6 
   97: 1121 B121  D0 05         	BNE NOTEVL
   98: 1123 B123  A9 13         LDZR	LDA #<ZERO
   99: 1125 B125  A0 BF         	LDY #>ZERO
  100: 1127 B127  60            	RTS
  101: 1128 B128  A5 45         NOTEVL	LDA VARNAM
  102: 112A B12A  A4 46         	LDY VARNAM+1
  103: 112C B12C  C9 54         	CMP #'T'
  104: 112E B12E  D0 0B         	BNE QSTAVR
  105: 1130 B130  C0 C9         	CPY #$C9
  106: 1132 B132  F0 EF         	BEQ LDZR
  107: 1134 B134  C0 49         	CPY #$49
  108: 1136 B136  D0 03         	BNE QSTAVR
  109: 1138 B138  4C 08 AF      GOBADV	JMP SNERR
  110:                          QSTAVR
  111: 113B B13B  C9 53         	CMP #'S'
  112: 113D B13D  D0 04         	BNE VAROK
  113: 113F B13F  C0 54         	CPY #'T'
  114: 1141 B141  F0 F5         	BEQ GOBADV
  115: 1143 B143  A5 2F         VAROK	LDA ARYTAB
  116: 1145 B145  A4 30         	LDY ARYTAB+1
  117: 1147 B147  85 5F         	STA LOWTR
  118: 1149 B149  84 60         	STY LOWTR+1
  119: 114B B14B  A5 31         	LDA STREND
  120: 114D B14D  A4 32         	LDY STREND+1
  121: 114F B14F  85 5A         	STA HIGHTR
  122: 1151 B151  84 5B         	STY HIGHTR+1
  123: 1153 B153  18            	CLC
  124: 1154 B154  69 07         	ADC #6+ADDPRC
  125: 1156 B156  90 01         	BCC NOTEVE
  126: 1158 B158  C8            	INY
  127: 1159 B159  85 58         NOTEVE	STA HIGHDS
  128: 115B B15B  84 59         	STY HIGHDS+1
  129: 115D B15D  20 B8 A3      	JSR BLTU
  130: 1160 B160  A5 58         	LDA HIGHDS
  131: 1162 B162  A4 59         	LDY HIGHDS+1
  132: 1164 B164  C8            	INY
  133: 1165 B165  85 2F         	STA ARYTAB
  134: 1167 B167  84 30         	STY ARYTAB+1
  135: 1169 B169  A0 00         	LDY #0
  136: 116B B16B  A5 45         	LDA VARNAM
  137: 116D B16D  91 5F         	STA (LOWTR),Y
  138: 116F B16F  C8            	INY
  139: 1170 B170  A5 46         	LDA VARNAM+1
  140: 1172 B172  91 5F         	STA (LOWTR),Y
  141: 1174 B174  A9 00         	LDA #0
  142: 1176 B176  C8            	INY
  143: 1177 B177  91 5F         	STA (LOWTR),Y
  144: 1179 B179  C8            	INY
  145: 117A B17A  91 5F         	STA (LOWTR),Y
  146: 117C B17C  C8            	INY
  147: 117D B17D  91 5F         	STA (LOWTR),Y
  148: 117F B17F  C8            	INY
  149: 1180 B180  91 5F         	STA (LOWTR),Y
  150: 1182 B182  C8            	INY
  151: 1183 B183  91 5F         	STA (LOWTR),Y
  152: 1185 B185  A5 5F         FINPTR	LDA LOWTR
  153: 1187 B187  18            	CLC
  154: 1188 B188  69 02         	ADC #2
  155: 118A B18A  A4 60         	LDY LOWTR+1
  156: 118C B18C  90 01         	BCC FINNOW
  157: 118E B18E  C8            	INY
  158: 118F B18F  85 47         FINNOW	STA VARPNT
  159: 1191 B191  84 48         	STY VARPNT+1
  160: 1193 B193  60            	RTS
  161: 1194 B194  A5 0B         FMAPTR	LDA COUNT
  162: 1196 B196  0A            	ASL
  163: 1197 B197  69 05         	ADC #5
  164: 1199 B199  65 5F         	ADC LOWTR
  165: 119B B19B  A4 60         	LDY LOWTR+1
  166: 119D B19D  90 01         	BCC JSRGM
  167: 119F B19F  C8            	INY
  168: 11A0 B1A0  85 58         JSRGM	STA ARYPNT
  169: 11A2 B1A2  84 59         	STY ARYPNT+1
  170: 11A4 B1A4  60            	RTS
  171:                          
 FILE: basic.a65
 FILE: code12.a65
    1:                          
    2: 11A5 B1A5  90 80 00      N32768	.BYTE 144,128,0,0,0
    3: 11AA B1AA  20 BF B1      FLPINT	JSR AYINT
    4: 11AD B1AD  A5 64         	LDA FACMO
    5: 11AF B1AF  A4 65         	LDY  FACLO
    6: 11B1 B1B1  60            	RTS
    7: 11B2 B1B2  20 73 00      INTIDX	JSR CHRGET
    8: 11B5 B1B5  20 9E AD      	JSR FRMEVL
    9: 11B8 B1B8  20 8D AD      POSINT	JSR CHKNUM
   10: 11BB B1BB  A5 66         	LDA FACSGN
   11: 11BD B1BD  30 0D         	BMI NONONO
   12: 11BF B1BF  A5 61         AYINT	LDA FACEXP
   13: 11C1 B1C1  C9 90         	CMP #144
   14: 11C3 B1C3  90 09         	BCC QINTGO
   15: 11C5 B1C5  A9 A5         	LDA #<N32768
   16: 11C7 B1C7  A0 B1         	LDY #>N32768
   17: 11C9 B1C9  20 5B BC      	JSR FCOMP
   18: 11CC B1CC  D0 7A         NONONO	BNE FCERR
   19: 11CE B1CE  4C 9B BC      QINTGO	JMP QINT
   20: 11D1 B1D1  A5 0C         ISARY	LDA DIMFLG
   21: 11D3 B1D3  05 0E         	ORA INTFLG
   22: 11D5 B1D5  48            	PHA
   23: 11D6 B1D6  A5 0D         	LDA VALTYP
   24: 11D8 B1D8  48            	PHA
   25: 11D9 B1D9  A0 00         	LDY #0
   26: 11DB B1DB  98            INDLOP	TYA
   27: 11DC B1DC  48            	PHA
   28: 11DD B1DD  A5 46         	LDA VARNAM+1
   29: 11DF B1DF  48            	PHA
   30: 11E0 B1E0  A5 45         	LDA VARNAM
   31: 11E2 B1E2  48            	PHA
   32: 11E3 B1E3  20 B2 B1      	JSR INTIDX
   33: 11E6 B1E6  68            	PLA
   34: 11E7 B1E7  85 45         	STA VARNAM
   35: 11E9 B1E9  68            	PLA
   36: 11EA B1EA  85 46         	STA VARNAM+1
   37: 11EC B1EC  68            	PLA
   38: 11ED B1ED  A8            	TAY
   39: 11EE B1EE  BA            	TSX
   40: 11EF B1EF  BD 02 01      	LDA 258,X
   41: 11F2 B1F2  48            	PHA
   42: 11F3 B1F3  BD 01 01      	LDA 257,X
   43: 11F6 B1F6  48            	PHA
   44: 11F7 B1F7  A5 64         	LDA INDICE
   45: 11F9 B1F9  9D 02 01      	STA 258,X
   46: 11FC B1FC  A5 65         	LDA INDICE+1
   47: 11FE B1FE  9D 01 01      	STA 257,X
   48: 1201 B201  C8            	INY
   49: 1202 B202  20 79 00      	JSR CHRGOT
   50: 1205 B205  C9 2C         	CMP #44
   51: 1207 B207  F0 D2         	BEQ INDLOP
   52: 1209 B209  84 0B         	STY COUNT
   53: 120B B20B  20 F7 AE      	JSR CHKCLS
   54: 120E B20E  68            	PLA
   55: 120F B20F  85 0D         	STA VALTYP
   56: 1211 B211  68            	PLA
   57: 1212 B212  85 0E         	STA INTFLG
   58: 1214 B214  29 7F         	AND #127
   59: 1216 B216  85 0C         	STA DIMFLG
   60: 1218 B218  A6 2F         	LDX ARYTAB
   61: 121A B21A  A5 30         	LDA ARYTAB+1
   62: 121C B21C  86 5F         LOPFDA	STX LOWTR
   63: 121E B21E  85 60         	STA LOWTR+1
   64: 1220 B220  C5 32         	CMP STREND+1
   65: 1222 B222  D0 04         	BNE LOPFDV
   66: 1224 B224  E4 31         	CPX STREND
   67: 1226 B226  F0 39         	BEQ NOTFDD
   68: 1228 B228  A0 00         LOPFDV	LDY #0
   69: 122A B22A  B1 5F         	LDA (LOWTR),Y
   70: 122C B22C  C8            	INY
   71: 122D B22D  C5 45         	CMP VARNAM
   72: 122F B22F  D0 06         	BNE NMARY1
   73: 1231 B231  A5 46         	LDA VARNAM+1
   74: 1233 B233  D1 5F         	CMP (LOWTR),Y
   75: 1235 B235  F0 16         	BEQ GOTARY
   76: 1237 B237  C8            NMARY1	INY
   77: 1238 B238  B1 5F         	LDA (LOWTR),Y
   78: 123A B23A  18            	CLC
   79: 123B B23B  65 5F         	ADC LOWTR
   80: 123D B23D  AA            	TAX
   81: 123E B23E  C8            	INY
   82: 123F B23F  B1 5F         	LDA (LOWTR),Y
   83: 1241 B241  65 60         	ADC LOWTR+1
   84: 1243 B243  90 D7         	BCC LOPFDA
   85: 1245 B245  A2 12         BSERR	LDX #ERRBS
   86: 1247 B247  2C            	.BYTE $2C
   87: 1248 B248  A2 0E         FCERR	LDX #ERRFC
   88: 124A B24A  4C 37 A4      ERRGO3	JMP ERROR
   89: 124D B24D  A2 13         GOTARY	LDX #ERRDD
   90: 124F B24F  A5 0C         	LDA DIMFLG
   91: 1251 B251  D0 F7         	BNE ERRGO3
   92: 1253 B253  20 94 B1      	JSR FMAPTR
   93: 1256 B256  A5 0B         	LDA COUNT
   94: 1258 B258  A0 04         	LDY #4
   95: 125A B25A  D1 5F         	CMP (LOWTR),Y
   96: 125C B25C  D0 E7         	BNE BSERR
   97: 125E B25E  4C EA B2      	JMP GETDEF
   98: 1261 B261  20 94 B1      NOTFDD	JSR FMAPTR
   99: 1264 B264  20 08 A4      	JSR REASON
  100: 1267 B267  A0 00         	LDY #0
  101: 1269 B269  84 72         	STY CURTOL+1
  102: 126B B26B  A2 05         	LDX #5
  103: 126D B26D  A5 45         	LDA VARNAM
  104: 126F B26F  91 5F         	STA (LOWTR),Y
  105: 1271 B271  10 01         	BPL NOTFLT
  106: 1273 B273  CA            	DEX
  107: 1274 B274  C8            NOTFLT	INY
  108: 1275 B275  A5 46         	LDA VARNAM+1
  109: 1277 B277  91 5F         	STA (LOWTR),Y
  110: 1279 B279  10 02         	BPL STOMLT
  111: 127B B27B  CA            	DEX
  112: 127C B27C  CA            	DEX
  113: 127D B27D  86 71         STOMLT	STX CURTOL
  114: 127F B27F  A5 0B         	LDA COUNT
  115: 1281 B281  C8            	INY
  116: 1282 B282  C8            	INY
  117: 1283 B283  C8            	INY
  118: 1284 B284  91 5F         	STA (LOWTR),Y
  119: 1286 B286  A2 0B         LOPPTA	LDX #11
  120: 1288 B288  A9 00         	LDA #0
  121: 128A B28A  24 0C         	BIT DIMFLG
  122: 128C B28C  50 08         	BVC NOTDIM
  123: 128E B28E  68            	PLA
  124: 128F B28F  18            	CLC
  125: 1290 B290  69 01         	ADC #1
  126: 1292 B292  AA            	TAX
  127: 1293 B293  68            	PLA
  128: 1294 B294  69 00         	ADC #0
  129: 1296 B296  C8            NOTDIM	INY
  130: 1297 B297  91 5F         	STA (LOWTR),Y
  131: 1299 B299  C8            	INY
  132: 129A B29A  8A            	TXA
  133: 129B B29B  91 5F         	STA (LOWTR),Y
  134: 129D B29D  20 4C B3      	JSR UMULT
  135: 12A0 B2A0  86 71         	STX CURTOL
  136: 12A2 B2A2  85 72         	STA CURTOL+1
  137: 12A4 B2A4  A4 22         	LDY INDEX
  138: 12A6 B2A6  C6 0B         	DEC COUNT
  139: 12A8 B2A8  D0 DC         	BNE LOPPTA
  140: 12AA B2AA  65 59         	ADC ARYPNT+1
  141: 12AC B2AC  B0 5D         	BCS OMERR1
  142: 12AE B2AE  85 59         	STA ARYPNT+1
  143: 12B0 B2B0  A8            	TAY
  144: 12B1 B2B1  8A            	TXA
  145: 12B2 B2B2  65 58         	ADC ARYPNT
  146: 12B4 B2B4  90 03         	BCC GREASE
  147: 12B6 B2B6  C8            	INY
  148: 12B7 B2B7  F0 52         	BEQ OMERR1
  149: 12B9 B2B9  20 08 A4      GREASE	JSR REASON
  150: 12BC B2BC  85 31         	STA STREND
  151: 12BE B2BE  84 32         	STY STREND+1
  152: 12C0 B2C0  A9 00         	LDA #0
  153: 12C2 B2C2  E6 72         	INC CURTOL+1
  154:                          
 FILE: basic.a65
 FILE: code13.a65
    1:                          
    2: 12C4 B2C4  A4 71         	LDY CURTOL
    3: 12C6 B2C6  F0 05         	BEQ DECCUR
    4: 12C8 B2C8  88            ZERITA	DEY
    5: 12C9 B2C9  91 58         	STA (ARYPNT),Y
    6: 12CB B2CB  D0 FB         	BNE ZERITA
    7: 12CD B2CD  C6 59         DECCUR	DEC ARYPNT+1
    8: 12CF B2CF  C6 72         	DEC CURTOL+1
    9: 12D1 B2D1  D0 F5         	BNE ZERITA
   10: 12D3 B2D3  E6 59         	INC ARYPNT+1
   11: 12D5 B2D5  38            	SEC
   12: 12D6 B2D6  A5 31         	LDA STREND
   13: 12D8 B2D8  E5 5F         	SBC LOWTR
   14: 12DA B2DA  A0 02         	LDY #2
   15: 12DC B2DC  91 5F         	STA (LOWTR),Y
   16: 12DE B2DE  A5 32         	LDA STREND+1
   17: 12E0 B2E0  C8            	INY
   18: 12E1 B2E1  E5 60         	SBC LOWTR+1
   19: 12E3 B2E3  91 5F         	STA (LOWTR),Y
   20: 12E5 B2E5  A5 0C         	LDA DIMFLG
   21: 12E7 B2E7  D0 62         	BNE DIMRTS
   22: 12E9 B2E9  C8            	INY
   23: 12EA B2EA  B1 5F         GETDEF	LDA (LOWTR),Y
   24: 12EC B2EC  85 0B         	STA COUNT
   25: 12EE B2EE  A9 00         	LDA #0
   26: 12F0 B2F0  85 71         	STA CURTOL
   27: 12F2 B2F2  85 72         INLPNM	STA CURTOL+1
   28: 12F4 B2F4  C8            	INY
   29: 12F5 B2F5  68            	PLA
   30: 12F6 B2F6  AA            	TAX
   31: 12F7 B2F7  85 64         	STA INDICE
   32: 12F9 B2F9  68            	PLA
   33: 12FA B2FA  85 65         	STA INDICE+1
   34: 12FC B2FC  D1 5F         	CMP (LOWTR),Y
   35: 12FE B2FE  90 0E         	BCC INLPN2
   36: 1300 B300  D0 06         	BNE BSERR7
   37: 1302 B302  C8            	INY
   38: 1303 B303  8A            	TXA
   39: 1304 B304  D1 5F         	CMP (LOWTR),Y
   40: 1306 B306  90 07         	BCC INLPN1
   41: 1308 B308  4C 45 B2      BSERR7	JMP BSERR
   42: 130B B30B  4C 35 A4      OMERR1	JMP OMERR
   43: 130E B30E  C8            INLPN2	INY
   44: 130F B30F  A5 72         INLPN1	LDA CURTOL+1
   45: 1311 B311  05 71         	ORA CURTOL
   46: 1313 B313  18            	CLC
   47: 1314 B314  F0 0A         	BEQ ADDIND
   48: 1316 B316  20 4C B3      	JSR UMULT
   49: 1319 B319  8A            	TXA
   50: 131A B31A  65 64         	ADC INDICE
   51: 131C B31C  AA            	TAX
   52: 131D B31D  98            	TYA
   53: 131E B31E  A4 22         	LDY INDEX1
   54: 1320 B320  65 65         ADDIND	ADC INDICE+1
   55: 1322 B322  86 71         	STX CURTOL
   56: 1324 B324  C6 0B         	DEC COUNT
   57: 1326 B326  D0 CA         	BNE INLPNM
   58: 1328 B328  85 72         	STA CURTOL+1
   59: 132A B32A  A2 05         	LDX #5
   60: 132C B32C  A5 45         	LDA VARNAM
   61: 132E B32E  10 01         	BPL NOTFL1
   62: 1330 B330  CA            	DEX
   63: 1331 B331  A5 46         NOTFL1	LDA VARNAM+1
   64: 1333 B333  10 02         	BPL STOML1
   65: 1335 B335  CA            	DEX
   66: 1336 B336  CA            	DEX
   67: 1337 B337  86 28         STOML1	STX ADDEND
   68: 1339 B339  A9 00         	LDA #0
   69: 133B B33B  20 55 B3      	JSR UMULTD
   70: 133E B33E  8A            	TXA
   71: 133F B33F  65 58         	ADC ARYPNT
   72: 1341 B341  85 47         	STA VARPNT
   73: 1343 B343  98            	TYA
   74: 1344 B344  65 59         	ADC ARYPNT+1
   75: 1346 B346  85 48         	STA VARPNT+1
   76: 1348 B348  A8            	TAY
   77: 1349 B349  A5 47         	LDA VARPNT
   78: 134B B34B  60            DIMRTS	RTS
   79: 134C B34C  84 22         UMULT	STY INDEX
   80: 134E B34E  B1 5F         	LDA (LOWTR),Y
   81: 1350 B350  85 28         	STA ADDEND
   82: 1352 B352  88            	DEY
   83: 1353 B353  B1 5F         	LDA (LOWTR),Y
   84: 1355 B355  85 29         UMULTD	STA ADDEND+1
   85: 1357 B357  A9 10         	LDA #16
   86: 1359 B359  85 5D         	STA DECCNT
   87: 135B B35B  A2 00         	LDX #0
   88: 135D B35D  A0 00         	LDY #0
   89: 135F B35F  8A            UMULTC	TXA
   90: 1360 B360  0A            	ASL
   91: 1361 B361  AA            	TAX
   92: 1362 B362  98            	TYA
   93: 1363 B363  2A            	ROL
   94: 1364 B364  A8            	TAY
   95: 1365 B365  B0 A4         	BCS OMERR1
   96: 1367 B367  06 71         	ASL CURTOL
   97: 1369 B369  26 72         	ROL CURTOL+1
   98: 136B B36B  90 0B         	BCC UMLCNT
   99: 136D B36D  18            	CLC
  100: 136E B36E  8A            	TXA
  101: 136F B36F  65 28         	ADC ADDEND
  102: 1371 B371  AA            	TAX
  103: 1372 B372  98            	TYA
  104: 1373 B373  65 29         	ADC ADDEND+1
  105: 1375 B375  A8            	TAY
  106: 1376 B376  B0 93         	BCS OMERR1
  107: 1378 B378  C6 5D         UMLCNT	DEC DECCNT
  108: 137A B37A  D0 E3         	BNE UMULTC
  109: 137C B37C  60            UMLRTS	RTS
  110: 137D B37D  A5 0D         FRE	LDA VALTYP
  111: 137F B37F  F0 03         	BEQ NOFREF
  112: 1381 B381  20 A6 B6      	JSR FREFAC
  113: 1384 B384  20 26 B5      NOFREF	JSR GARBA2
  114: 1387 B387  38            	SEC
  115: 1388 B388  A5 33         	LDA FRETOP
  116: 138A B38A  E5 31         	SBC STREND
  117: 138C B38C  A8            	TAY
  118: 138D B38D  A5 34         	LDA FRETOP+1
  119: 138F B38F  E5 32         	SBC STREND+1
  120: 1391 B391  A2 00         GIVAYF	LDX #0
  121: 1393 B393  86 0D         	STX VALTYP
  122: 1395 B395  85 62         	STA FACHO
  123: 1397 B397  84 63         	STY FACHO+1
  124: 1399 B399  A2 90         	LDX #144
  125: 139B B39B  4C 44 BC      	JMP FLOATS
  126: 139E B39E  38            POS	SEC
  127: 139F B39F  20 F0 FF      	JSR PLOT        ;GET TAB POS IN .Y
  128: 13A2 B3A2  A9 00         SNGFLT	LDA #0
  129: 13A4 B3A4  F0 EB         	BEQ GIVAYF
  130: 13A6 B3A6  A6 3A         ERRDIR	LDX CURLIN+1
  131: 13A8 B3A8  E8            	INX
  132: 13A9 B3A9  D0 A0         	BNE DIMRTS
  133: 13AB B3AB  A2 15         	LDX #ERRID
  134: 13AD B3AD  2C            	.BYTE $2C
  135: 13AE B3AE  A2 1B         ERRGUF	LDX #ERRUF
  136: 13B0 B3B0  4C 37 A4      	JMP ERROR
  137: 13B3 B3B3  20 E1 B3      DEF	JSR GETFNM
  138: 13B6 B3B6  20 A6 B3      	JSR ERRDIR
  139: 13B9 B3B9  20 FA AE      	JSR CHKOPN
  140: 13BC B3BC  A9 80         	LDA #128
  141: 13BE B3BE  85 10         	STA SUBFLG
  142: 13C0 B3C0  20 8B B0      	JSR PTRGET
  143: 13C3 B3C3  20 8D AD      	JSR CHKNUM
  144: 13C6 B3C6  20 F7 AE      	JSR CHKCLS
  145: 13C9 B3C9  A9 B2         	LDA #$B2
  146: 13CB B3CB  20 FF AE      	JSR SYNCHR
  147: 13CE B3CE  48            	PHA
  148: 13CF B3CF  A5 48         	LDA VARPNT+1
  149: 13D1 B3D1  48            	PHA
  150: 13D2 B3D2  A5 47         	LDA VARPNT
  151: 13D4 B3D4  48            	PHA
  152: 13D5 B3D5  A5 7B         	LDA TXTPTR+1
  153:                          
 FILE: basic.a65
 FILE: code14.a65
    1:                          
    2: 13D7 B3D7  48            	PHA
    3: 13D8 B3D8  A5 7A         	LDA TXTPTR
    4: 13DA B3DA  48            	PHA
    5: 13DB B3DB  20 F8 A8      	JSR DATA
    6: 13DE B3DE  4C 4F B4      	JMP DEFFIN
    7: 13E1 B3E1  A9 A5         GETFNM	LDA #FNTK
    8: 13E3 B3E3  20 FF AE      	JSR SYNCHR
    9: 13E6 B3E6  09 80         	ORA #128
   10: 13E8 B3E8  85 10         	STA SUBFLG
   11: 13EA B3EA  20 92 B0      	JSR PTRGT2
   12: 13ED B3ED  85 4E         	STA DEFPNT
   13: 13EF B3EF  84 4F         	STY DEFPNT+1
   14: 13F1 B3F1  4C 8D AD      	JMP CHKNUM
   15: 13F4 B3F4  20 E1 B3      FNDOER	JSR GETFNM
   16: 13F7 B3F7  A5 4F         	LDA DEFPNT+1
   17: 13F9 B3F9  48            	PHA
   18: 13FA B3FA  A5 4E         	LDA DEFPNT
   19: 13FC B3FC  48            	PHA
   20: 13FD B3FD  20 F1 AE      	JSR PARCHK
   21: 1400 B400  20 8D AD      	JSR CHKNUM
   22: 1403 B403  68            	PLA
   23: 1404 B404  85 4E         	STA DEFPNT
   24: 1406 B406  68            	PLA
   25: 1407 B407  85 4F         	STA DEFPNT+1
   26: 1409 B409  A0 02         	LDY #2
   27: 140B B40B  B1 4E         	LDA (DEFPNT),Y
   28: 140D B40D  85 47         	STA VARPNT
   29: 140F B40F  AA            	TAX
   30: 1410 B410  C8            	INY
   31: 1411 B411  B1 4E         	LDA (DEFPNT),Y
   32: 1413 B413  F0 99         	BEQ ERRGUF
   33: 1415 B415  85 48         	STA VARPNT+1
   34: 1417 B417  C8            	INY
   35: 1418 B418  B1 47         DEFSTF	LDA (VARPNT),Y
   36: 141A B41A  48            	PHA
   37: 141B B41B  88            	DEY
   38: 141C B41C  10 FA         	BPL DEFSTF
   39: 141E B41E  A4 48         	LDY VARPNT+1
   40: 1420 B420  20 D4 BB      	JSR MOVMF
   41: 1423 B423  A5 7B         	LDA TXTPTR+1
   42: 1425 B425  48            	PHA
   43: 1426 B426  A5 7A         	LDA TXTPTR
   44: 1428 B428  48            	PHA
   45: 1429 B429  B1 4E         	LDA (DEFPNT),Y
   46: 142B B42B  85 7A         	STA TXTPTR
   47: 142D B42D  C8            	INY
   48: 142E B42E  B1 4E         	LDA (DEFPNT),Y
   49: 1430 B430  85 7B         	STA TXTPTR+1
   50: 1432 B432  A5 48         	LDA VARPNT+1
   51: 1434 B434  48            	PHA
   52: 1435 B435  A5 47         	LDA VARPNT
   53: 1437 B437  48            	PHA
   54: 1438 B438  20 8A AD      	JSR FRMNUM
   55: 143B B43B  68            	PLA
   56: 143C B43C  85 4E         	STA DEFPNT
   57: 143E B43E  68            	PLA
   58: 143F B43F  85 4F         	STA DEFPNT+1
   59: 1441 B441  20 79 00      	JSR CHRGOT
   60: 1444 B444  F0 03         	BEQ @+5
   61: 1446 B446  4C 08 AF      	JMP SNERR
   62: 1449 B449  68            	PLA
   63: 144A B44A  85 7A         	STA TXTPTR
   64: 144C B44C  68            	PLA
   65: 144D B44D  85 7B         	STA TXTPTR+1
   66: 144F B44F  A0 00         DEFFIN	LDY #0
   67: 1451 B451  68            	PLA
   68: 1452 B452  91 4E         	STA (DEFPNT),Y
   69: 1454 B454  68            	PLA
   70: 1455 B455  C8            	INY
   71: 1456 B456  91 4E         	STA (DEFPNT),Y
   72: 1458 B458  68            	PLA
   73: 1459 B459  C8            	INY
   74: 145A B45A  91 4E         	STA (DEFPNT),Y
   75: 145C B45C  68            	PLA
   76: 145D B45D  C8            	INY
   77: 145E B45E  91 4E         	STA (DEFPNT),Y
   78: 1460 B460  68            	PLA
   79: 1461 B461  C8            	INY
   80: 1462 B462  91 4E         	STA (DEFPNT),Y
   81: 1464 B464  60            	RTS
   82: 1465 B465  20 8D AD      STRD	JSR CHKNUM
   83: 1468 B468  A0 00         	LDY #0
   84: 146A B46A  20 DF BD      	JSR FOUTC
   85: 146D B46D  68            	PLA
   86: 146E B46E  68            	PLA
   87: 146F B46F  A9 FF         TIMSTR	LDA #<LOFBUF
   88: 1471 B471  A0 00         	LDY #>LOFBUF
   89: 1473 B473  F0 12         	BEQ STRLIT
   90: 1475 B475  A6 64         STRINI	LDX FACMO
   91: 1477 B477  A4 65         	LDY FACMO+1
   92: 1479 B479  86 50         	STX DSCPNT
   93: 147B B47B  84 51         	STY DSCPNT+1
   94: 147D B47D  20 F4 B4      STRSPA	JSR GETSPA
   95: 1480 B480  86 62         	STX DSCTMP+1
   96: 1482 B482  84 63         	STY DSCTMP+2
   97: 1484 B484  85 61         	STA DSCTMP
   98: 1486 B486  60            	RTS
   99: 1487 B487  A2 22         STRLIT	LDX #34
  100: 1489 B489  86 07         	STX CHARAC
  101: 148B B48B  86 08         	STX ENDCHR
  102: 148D B48D  85 6F         STRLT2	STA STRNG1
  103: 148F B48F  84 70         	STY STRNG1+1
  104: 1491 B491  85 62         	STA DSCTMP+1
  105: 1493 B493  84 63         	STY DSCTMP+2
  106: 1495 B495  A0 FF         	LDY #255
  107: 1497 B497  C8            STRGET	INY
  108: 1498 B498  B1 6F         	LDA (STRNG1),Y
  109: 149A B49A  F0 0C         	BEQ STRFI1
  110: 149C B49C  C5 07         	CMP CHARAC
  111: 149E B49E  F0 04         	BEQ STRFIN
  112: 14A0 B4A0  C5 08         	CMP ENDCHR
  113: 14A2 B4A2  D0 F3         	BNE STRGET
  114: 14A4 B4A4  C9 22         STRFIN	CMP #34
  115: 14A6 B4A6  F0 01         	BEQ STRFI2
  116: 14A8 B4A8  18            STRFI1	CLC
  117: 14A9 B4A9  84 61         STRFI2	STY DSCTMP
  118: 14AB B4AB  98            	TYA
  119: 14AC B4AC  65 6F         	ADC STRNG1
  120: 14AE B4AE  85 71         	STA STRNG2
  121: 14B0 B4B0  A6 70         	LDX STRNG1+1
  122: 14B2 B4B2  90 01         	BCC STRST2
  123: 14B4 B4B4  E8            	INX
  124: 14B5 B4B5  86 72         STRST2	STX STRNG2+1
  125: 14B7 B4B7  A5 70         	LDA STRNG1+1
  126: 14B9 B4B9  F0 04         	BEQ STRCP
  127: 14BB B4BB  C9 02         	CMP #BUFPAG
  128: 14BD B4BD  D0 0B         	BNE PUTNEW
  129: 14BF B4BF  98            STRCP	TYA
  130: 14C0 B4C0  20 75 B4      	JSR STRINI
  131: 14C3 B4C3  A6 6F         	LDX STRNG1
  132: 14C5 B4C5  A4 70         	LDY STRNG1+1
  133: 14C7 B4C7  20 88 B6      	JSR MOVSTR
  134: 14CA B4CA  A6 16         PUTNEW	LDX TEMPPT
  135: 14CC B4CC  E0 22         	CPX #TEMPST+STRSIZ+STRSIZ+STRSIZ
  136: 14CE B4CE  D0 05         	BNE PUTNW1
  137: 14D0 B4D0  A2 19         	LDX #ERRST
  138: 14D2 B4D2  4C 37 A4      ERRGO2	JMP ERROR
  139: 14D5 B4D5  A5 61         PUTNW1	LDA DSCTMP
  140: 14D7 B4D7  95 00         	STA 0,X
  141: 14D9 B4D9  A5 62         	LDA DSCTMP+1
  142: 14DB B4DB  95 01         	STA 1,X
  143: 14DD B4DD  A5 63         	LDA DSCTMP+2
  144: 14DF B4DF  95 02         	STA 2,X
  145: 14E1 B4E1  A0 00         	LDY #0
  146: 14E3 B4E3  86 64         	STX FACMO
  147: 14E5 B4E5  84 65         	STY FACMO+1
  148: 14E7 B4E7  84 70         	STY FACOV
  149: 14E9 B4E9  88            	DEY
  150: 14EA B4EA  84 0D         	STY VALTYP
  151: 14EC B4EC  86 17         	STX LASTPT
  152: 14EE B4EE  E8            	INX
  153: 14EF B4EF  E8            	INX
  154: 14F0 B4F0  E8            	INX
  155: 14F1 B4F1  86 16         	STX TEMPPT
  156: 14F3 B4F3  60            	RTS
  157: 14F4 B4F4  46 0F         GETSPA	LSR GARBFL
  158: 14F6 B4F6  48            TRYAG2	PHA
  159: 14F7 B4F7  49 FF         	EOR #255
  160: 14F9 B4F9  38            	SEC
  161: 14FA B4FA  65 33         	ADC FRETOP
  162: 14FC B4FC  A4 34         	LDY FRETOP+1
  163: 14FE B4FE  B0 01         	BCS TRYAG3
  164: 1500 B500  88            	DEY
  165: 1501 B501  C4 32         TRYAG3	CPY STREND+1
  166: 1503 B503  90 11         	BCC GARBAG
  167: 1505 B505  D0 04         	BNE STRFRE
  168: 1507 B507  C5 31         	CMP STREND
  169: 1509 B509  90 0B         	BCC GARBAG
  170: 150B B50B  85 33         STRFRE	STA FRETOP
  171: 150D B50D  84 34         	STY FRETOP+1
  172: 150F B50F  85 35         	STA FRESPC
  173: 1511 B511  84 36         	STY FRESPC+1
  174: 1513 B513  AA            	TAX
  175: 1514 B514  68            	PLA
  176: 1515 B515  60            	RTS
  177: 1516 B516  A2 10         GARBAG	LDX #ERROM
  178: 1518 B518  A5 0F         	LDA GARBFL
  179: 151A B51A  30 B6         	BMI ERRGO2
  180: 151C B51C  20 26 B5      	JSR GARBA2
  181: 151F B51F  A9 80         	LDA #128
  182: 1521 B521  85 0F         	STA GARBFL
  183: 1523 B523  68            	PLA
  184: 1524 B524  D0 D0         	BNE TRYAG2
  185: 1526 B526  A6 37         GARBA2	LDX MEMSIZ
  186: 1528 B528  A5 38         	LDA MEMSIZ+1
  187: 152A B52A  86 33         FNDVAR	STX FRETOP
  188: 152C B52C  85 34         	STA FRETOP+1
  189: 152E B52E  A0 00         	LDY #0
  190: 1530 B530  84 4F         	STY GRBPNT+1
  191: 1532 B532  84 4E         	STY GRBPNT
  192: 1534 B534  A5 31         	LDA STREND
  193: 1536 B536  A6 32         	LDX STREND+1
  194: 1538 B538  85 5F         	STA GRBTOP
  195: 153A B53A  86 60         	STX GRBTOP+1
  196: 153C B53C  A9 19         	LDA #<TEMPST
  197: 153E B53E  A2 00         	LDX #>TEMPST
  198: 1540 B540  85 22         	STA INDEX1
  199: 1542 B542  86 23         	STX INDEX1+1
  200: 1544 B544  C5 16         TVAR	CMP TEMPPT
  201: 1546 B546  F0 05         	BEQ SVARS
  202: 1548 B548  20 C7 B5      	JSR DVAR
  203: 154B B54B  F0 F7         	BEQ TVAR
  204: 154D B54D  A9 07         SVARS	LDA #6+ADDPRC
  205: 154F B54F  85 53         	STA FOUR6
  206: 1551 B551  A5 2D         	LDA VARTAB
  207: 1553 B553  A6 2E         	LDX VARTAB+1
  208:                          
 FILE: basic.a65
 FILE: code15.a65
    1:                          
    2: 1555 B555  85 22         	STA INDEX1
    3: 1557 B557  86 23         	STX INDEX1+1
    4: 1559 B559  E4 30         SVAR	CPX ARYTAB+1
    5: 155B B55B  D0 04         	BNE SVARGO
    6: 155D B55D  C5 2F         	CMP ARYTAB
    7: 155F B55F  F0 05         	BEQ ARYVAR
    8: 1561 B561  20 BD B5      SVARGO	JSR DVARS
    9: 1564 B564  F0 F3         	BEQ SVAR
   10: 1566 B566  85 58         ARYVAR	STA ARYPNT
   11: 1568 B568  86 59         	STX ARYPNT+1
   12: 156A B56A  A9 03         	LDA #STRSIZ
   13: 156C B56C  85 53         	STA FOUR6
   14: 156E B56E  A5 58         ARYVA2	LDA ARYPNT
   15: 1570 B570  A6 59         	LDX ARYPNT+1
   16: 1572 B572  E4 32         ARYVA3	CPX STREND+1
   17: 1574 B574  D0 07         	BNE ARYVGO
   18: 1576 B576  C5 31         	CMP STREND
   19: 1578 B578  D0 03         	BNE @+5
   20: 157A B57A  4C 06 B6      	JMP GRBPAS
   21: 157D B57D  85 22         ARYVGO	STA INDEX1
   22: 157F B57F  86 23         	STX INDEX1+1
   23: 1581 B581  A0 00         	LDY #1-ADDPRC
   24: 1583 B583  B1 22         	LDA (INDEX1),Y
   25: 1585 B585  AA            	TAX
   26: 1586 B586  C8            	INY
   27: 1587 B587  B1 22         	LDA (INDEX1),Y
   28: 1589 B589  08            	PHP
   29: 158A B58A  C8            	INY
   30: 158B B58B  B1 22         	LDA (INDEX1),Y
   31: 158D B58D  65 58         	ADC ARYPNT
   32: 158F B58F  85 58         	STA ARYPNT
   33: 1591 B591  C8            	INY
   34: 1592 B592  B1 22         	LDA (INDEX1),Y
   35: 1594 B594  65 59         	ADC ARYPNT+1
   36: 1596 B596  85 59         	STA ARYPNT+1
   37: 1598 B598  28            	PLP
   38: 1599 B599  10 D3         	BPL ARYVA2
   39: 159B B59B  8A            	TXA
   40: 159C B59C  30 D0         	BMI ARYVA2
   41: 159E B59E  C8            	INY
   42: 159F B59F  B1 22         	LDA (INDEX1),Y
   43: 15A1 B5A1  A0 00         	LDY #0
   44: 15A3 B5A3  0A            	ASL
   45: 15A4 B5A4  69 05         	ADC #5
   46: 15A6 B5A6  65 22         	ADC INDEX1
   47: 15A8 B5A8  85 22         	STA INDEX1
   48: 15AA B5AA  90 02         	BCC ARYGET
   49: 15AC B5AC  E6 23         	INC INDEX1+1
   50: 15AE B5AE  A6 23         ARYGET	LDX INDEX1+1
   51: 15B0 B5B0  E4 59         ARYSTR	CPX ARYPNT+1
   52: 15B2 B5B2  D0 04         	BNE GOGO
   53: 15B4 B5B4  C5 58         	CMP ARYPNT
   54: 15B6 B5B6  F0 BA         	BEQ ARYVA3
   55: 15B8 B5B8  20 C7 B5      GOGO	JSR DVAR
   56: 15BB B5BB  F0 F3         	BEQ ARYSTR
   57: 15BD B5BD  B1 22         DVARS	LDA (INDEX1),Y
   58: 15BF B5BF  30 35         	BMI DVARTS
   59: 15C1 B5C1  C8            	INY
   60: 15C2 B5C2  B1 22         	LDA (INDEX1),Y
   61: 15C4 B5C4  10 30         	BPL DVARTS
   62: 15C6 B5C6  C8            	INY
   63: 15C7 B5C7  B1 22         DVAR	LDA (INDEX1),Y
   64: 15C9 B5C9  F0 2B         	BEQ DVARTS
   65: 15CB B5CB  C8            	INY
   66: 15CC B5CC  B1 22         	LDA (INDEX1),Y
   67: 15CE B5CE  AA            	TAX
   68: 15CF B5CF  C8            	INY
   69: 15D0 B5D0  B1 22         	LDA (INDEX1),Y
   70: 15D2 B5D2  C5 34         	CMP FRETOP+1
   71: 15D4 B5D4  90 06         	BCC DVAR2
   72: 15D6 B5D6  D0 1E         	BNE DVARTS
   73: 15D8 B5D8  E4 33         	CPX FRETOP
   74: 15DA B5DA  B0 1A         	BCS DVARTS
   75: 15DC B5DC  C5 60         DVAR2	CMP GRBTOP+1
   76: 15DE B5DE  90 16         	BCC DVARTS
   77: 15E0 B5E0  D0 04         	BNE DVAR3
   78: 15E2 B5E2  E4 5F         	CPX GRBTOP
   79: 15E4 B5E4  90 10         	BCC DVARTS
   80: 15E6 B5E6  86 5F         DVAR3	STX GRBTOP
   81: 15E8 B5E8  85 60         	STA GRBTOP+1
   82: 15EA B5EA  A5 22         	LDA INDEX1
   83: 15EC B5EC  A6 23         	LDX INDEX1+1
   84: 15EE B5EE  85 4E         	STA GRBPNT
   85: 15F0 B5F0  86 4F         	STX GRBPNT+1
   86: 15F2 B5F2  A5 53         	LDA FOUR6
   87: 15F4 B5F4  85 55         	STA SIZE
   88: 15F6 B5F6  A5 53         DVARTS	LDA FOUR6
   89: 15F8 B5F8  18            	CLC
   90: 15F9 B5F9  65 22         	ADC INDEX1
   91: 15FB B5FB  85 22         	STA INDEX1
   92: 15FD B5FD  90 02         	BCC GRBRTS
   93: 15FF B5FF  E6 23         	INC INDEX1+1
   94: 1601 B601  A6 23         GRBRTS	LDX INDEX1+1
   95: 1603 B603  A0 00         	LDY #0
   96: 1605 B605  60            	RTS
   97: 1606 B606  A5 4F         GRBPAS	LDA GRBPNT+1
   98: 1608 B608  05 4E         	ORA GRBPNT
   99: 160A B60A  F0 F5         	BEQ GRBRTS
  100: 160C B60C  A5 55         	LDA SIZE
  101: 160E B60E  29 04         	AND #4
  102: 1610 B610  4A            	LSR
  103: 1611 B611  A8            	TAY
  104: 1612 B612  85 55         	STA SIZE
  105: 1614 B614  B1 4E         	LDA (GRBPNT),Y
  106: 1616 B616  65 5F         	ADC LOWTR
  107: 1618 B618  85 5A         	STA HIGHTR
  108: 161A B61A  A5 60         	LDA LOWTR+1
  109: 161C B61C  69 00         	ADC #0
  110: 161E B61E  85 5B         	STA HIGHTR+1
  111: 1620 B620  A5 33         	LDA FRETOP
  112: 1622 B622  A6 34         	LDX FRETOP+1
  113: 1624 B624  85 58         	STA HIGHDS
  114: 1626 B626  86 59         	STX HIGHDS+1
  115: 1628 B628  20 BF A3      	JSR BLTUC
  116: 162B B62B  A4 55         	LDY SIZE
  117: 162D B62D  C8            	INY
  118: 162E B62E  A5 58         	LDA HIGHDS
  119: 1630 B630  91 4E         	STA (GRBPNT),Y
  120: 1632 B632  AA            	TAX
  121: 1633 B633  E6 59         	INC HIGHDS+1
  122: 1635 B635  A5 59         	LDA HIGHDS+1
  123: 1637 B637  C8            	INY
  124: 1638 B638  91 4E         	STA (GRBPNT),Y
  125: 163A B63A  4C 2A B5      	JMP FNDVAR
  126: 163D B63D  A5 65         CAT	LDA FACLO
  127: 163F B63F  48            	PHA
  128: 1640 B640  A5 64         	LDA FACMO
  129: 1642 B642  48            	PHA
  130: 1643 B643  20 83 AE      	JSR EVAL
  131: 1646 B646  20 8F AD      	JSR CHKSTR
  132: 1649 B649  68            	PLA
  133: 164A B64A  85 6F         	STA STRNG1
  134: 164C B64C  68            	PLA
  135: 164D B64D  85 70         	STA STRNG1+1
  136: 164F B64F  A0 00         	LDY #0
  137: 1651 B651  B1 6F         	LDA (STRNG1),Y
  138: 1653 B653  18            	CLC
  139: 1654 B654  71 64         	ADC (FACMO),Y
  140: 1656 B656  90 05         	BCC SIZEOK
  141: 1658 B658  A2 17         	LDX #ERRLS
  142: 165A B65A  4C 37 A4      	JMP ERROR
  143: 165D B65D  20 75 B4      SIZEOK	JSR STRINI
  144: 1660 B660  20 7A B6      	JSR MOVINS
  145: 1663 B663  A5 50         	LDA DSCPNT
  146: 1665 B665  A4 51         	LDY DSCPNT+1
  147: 1667 B667  20 AA B6      	JSR FRETMP
  148: 166A B66A  20 8C B6      	JSR MOVDO
  149: 166D B66D  A5 6F         	LDA STRNG1
  150: 166F B66F  A4 70         	LDY STRNG1+1
  151: 1671 B671  20 AA B6      	JSR FRETMP
  152: 1674 B674  20 CA B4      	JSR PUTNEW
  153: 1677 B677  4C B8 AD      	JMP TSTOP
  154: 167A B67A  A0 00         MOVINS	LDY #0
  155: 167C B67C  B1 6F         	LDA (STRNG1),Y
  156: 167E B67E  48            	PHA
  157: 167F B67F  C8            	INY
  158:                          
 FILE: basic.a65
 FILE: code16.a65
    1:                          
    2: 1680 B680  B1 6F         	LDA (STRNG1),Y
    3: 1682 B682  AA            	TAX
    4: 1683 B683  C8            	INY
    5: 1684 B684  B1 6F         	LDA (STRNG1),Y
    6: 1686 B686  A8            	TAY
    7: 1687 B687  68            	PLA
    8: 1688 B688  86 22         MOVSTR	STX INDEX
    9: 168A B68A  84 23         	STY INDEX+1
   10: 168C B68C  A8            MOVDO	TAY
   11: 168D B68D  F0 0A         	BEQ MVDONE
   12: 168F B68F  48            	PHA
   13: 1690 B690  88            MOVLP	DEY
   14: 1691 B691  B1 22         	LDA (INDEX),Y
   15: 1693 B693  91 35         	STA (FRESPC),Y
   16: 1695 B695  98            	TYA
   17: 1696 B696  D0 F8         	BNE MOVLP
   18: 1698 B698  68            	PLA
   19: 1699 B699  18            MVDONE	CLC
   20: 169A B69A  65 35         	ADC FRESPC
   21: 169C B69C  85 35         	STA FRESPC
   22: 169E B69E  90 02         	BCC MVSTRT
   23: 16A0 B6A0  E6 36         	INC FRESPC+1
   24: 16A2 B6A2  60            MVSTRT	RTS
   25: 16A3 B6A3  20 8F AD      FRESTR	JSR CHKSTR
   26: 16A6 B6A6  A5 64         FREFAC	LDA FACMO
   27: 16A8 B6A8  A4 65         	LDY FACMO+1
   28: 16AA B6AA  85 22         FRETMP	STA INDEX
   29: 16AC B6AC  84 23         	STY INDEX+1
   30: 16AE B6AE  20 DB B6      	JSR FRETMS
   31: 16B1 B6B1  08            	PHP
   32: 16B2 B6B2  A0 00         	LDY #0
   33: 16B4 B6B4  B1 22         	LDA (INDEX),Y
   34: 16B6 B6B6  48            	PHA
   35: 16B7 B6B7  C8            	INY
   36: 16B8 B6B8  B1 22         	LDA (INDEX),Y
   37: 16BA B6BA  AA            	TAX
   38: 16BB B6BB  C8            	INY
   39: 16BC B6BC  B1 22         	LDA (INDEX),Y
   40: 16BE B6BE  A8            	TAY
   41: 16BF B6BF  68            	PLA
   42: 16C0 B6C0  28            	PLP
   43: 16C1 B6C1  D0 13         	BNE FRETRT
   44: 16C3 B6C3  C4 34         	CPY FRETOP+1
   45: 16C5 B6C5  D0 0F         	BNE FRETRT
   46: 16C7 B6C7  E4 33         	CPX FRETOP
   47: 16C9 B6C9  D0 0B         	BNE FRETRT
   48: 16CB B6CB  48            	PHA
   49: 16CC B6CC  18            	CLC
   50: 16CD B6CD  65 33         	ADC FRETOP
   51: 16CF B6CF  85 33         	STA FRETOP
   52: 16D1 B6D1  90 02         	BCC FREPLA
   53: 16D3 B6D3  E6 34         	INC FRETOP+1
   54: 16D5 B6D5  68            FREPLA	PLA
   55: 16D6 B6D6  86 22         FRETRT	STX INDEX
   56: 16D8 B6D8  84 23         	STY INDEX+1
   57: 16DA B6DA  60            	RTS
   58: 16DB B6DB  C4 18         FRETMS	CPY LASTPT+1
   59: 16DD B6DD  D0 0C         	BNE FRERTS
   60: 16DF B6DF  C5 17         	CMP LASTPT
   61: 16E1 B6E1  D0 08         	BNE FRERTS
   62: 16E3 B6E3  85 16         	STA TEMPPT
   63: 16E5 B6E5  E9 03         	SBC #STRSIZ
   64: 16E7 B6E7  85 17         	STA LASTPT
   65: 16E9 B6E9  A0 00         	LDY #0
   66: 16EB B6EB  60            FRERTS	RTS
   67: 16EC B6EC  20 A1 B7      CHRD	JSR CONINT
   68: 16EF B6EF  8A            	TXA
   69: 16F0 B6F0  48            	PHA
   70: 16F1 B6F1  A9 01         	LDA #1
   71: 16F3 B6F3  20 7D B4      	JSR STRSPA
   72: 16F6 B6F6  68            	PLA
   73: 16F7 B6F7  A0 00         	LDY #0
   74: 16F9 B6F9  91 62         	STA (DSCTMP+1),Y
   75: 16FB B6FB  68            	PLA
   76: 16FC B6FC  68            	PLA
   77: 16FD B6FD  4C CA B4      	JMP PUTNEW
   78: 1700 B700  20 61 B7      LEFTD	JSR PREAM
   79: 1703 B703  D1 50         	CMP (DSCPNT),Y
   80: 1705 B705  98            	TYA
   81: 1706 B706  90 04         RLEFT	BCC RLEFT1
   82: 1708 B708  B1 50         	LDA (DSCPNT),Y
   83: 170A B70A  AA            	TAX
   84: 170B B70B  98            	TYA
   85: 170C B70C  48            RLEFT1	PHA
   86: 170D B70D  8A            RLEFT2	TXA
   87: 170E B70E  48            RLEFT3	PHA
   88: 170F B70F  20 7D B4      	JSR STRSPA
   89: 1712 B712  A5 50         	LDA DSCPNT
   90: 1714 B714  A4 51         	LDY DSCPNT+1
   91: 1716 B716  20 AA B6      	JSR FRETMP
   92: 1719 B719  68            	PLA
   93: 171A B71A  A8            	TAY
   94: 171B B71B  68            	PLA
   95: 171C B71C  18            	CLC
   96: 171D B71D  65 22         	ADC INDEX
   97: 171F B71F  85 22         	STA INDEX
   98: 1721 B721  90 02         	BCC PULMOR
   99: 1723 B723  E6 23         	INC INDEX+1
  100: 1725 B725  98            PULMOR	TYA
  101: 1726 B726  20 8C B6      	JSR MOVDO
  102: 1729 B729  4C CA B4      	JMP PUTNEW
  103: 172C B72C  20 61 B7      RIGHTD	JSR PREAM
  104: 172F B72F  18            	CLC
  105: 1730 B730  F1 50         	SBC (DSCPNT),Y
  106: 1732 B732  49 FF         	EOR #255
  107: 1734 B734  4C 06 B7      	JMP RLEFT
  108: 1737 B737  A9 FF         MIDD	LDA #255
  109: 1739 B739  85 65         	STA FACLO
  110: 173B B73B  20 79 00      	JSR CHRGOT
  111: 173E B73E  C9 29         	CMP #41
  112: 1740 B740  F0 06         	BEQ MID2
  113: 1742 B742  20 FD AE      	JSR CHKCOM
  114: 1745 B745  20 9E B7      	JSR GETBYT
  115: 1748 B748  20 61 B7      MID2	JSR PREAM
  116: 174B B74B  F0 4B         	BEQ GOFUC
  117: 174D B74D  CA            	DEX
  118: 174E B74E  8A            	TXA
  119: 174F B74F  48            	PHA
  120: 1750 B750  18            	CLC
  121: 1751 B751  A2 00         	LDX #0
  122: 1753 B753  F1 50         	SBC (DSCPNT),Y
  123: 1755 B755  B0 B6         	BCS RLEFT2
  124: 1757 B757  49 FF         	EOR #255
  125: 1759 B759  C5 65         	CMP FACLO
  126: 175B B75B  90 B1         	BCC RLEFT3
  127: 175D B75D  A5 65         	LDA FACLO
  128: 175F B75F  B0 AD         	BCS RLEFT3
  129: 1761 B761  20 F7 AE      PREAM	JSR CHKCLS
  130: 1764 B764  68            	PLA
  131: 1765 B765  A8            	TAY
  132: 1766 B766  68            	PLA
  133: 1767 B767  85 55         	STA JMPER+1
  134: 1769 B769  68            	PLA
  135: 176A B76A  68            	PLA
  136: 176B B76B  68            	PLA
  137: 176C B76C  AA            	TAX
  138: 176D B76D  68            	PLA
  139: 176E B76E  85 50         	STA DSCPNT
  140: 1770 B770  68            	PLA
  141: 1771 B771  85 51         	STA DSCPNT+1
  142: 1773 B773  A5 55         	LDA JMPER+1
  143: 1775 B775  48            	PHA
  144: 1776 B776  98            	TYA
  145: 1777 B777  48            	PHA
  146: 1778 B778  A0 00         	LDY #0
  147: 177A B77A  8A            	TXA
  148: 177B B77B  60            	RTS
  149: 177C B77C  20 82 B7      LEN	JSR LEN1
  150: 177F B77F  4C A2 B3      	JMP SNGFLT
  151: 1782 B782  20 A3 B6      LEN1	JSR FRESTR
  152: 1785 B785  A2 00         	LDX #0
  153: 1787 B787  86 0D         	STX VALTYP
  154: 1789 B789  A8            	TAY
  155: 178A B78A  60            	RTS
  156: 178B B78B  20 82 B7      ASC	JSR LEN1
  157: 178E B78E  F0 08         	BEQ GOFUC
  158: 1790 B790  A0 00         	LDY #0
  159: 1792 B792  B1 22         	LDA (INDEX1),Y
  160: 1794 B794  A8            	TAY
  161: 1795 B795  4C A2 B3      	JMP SNGFLT
  162: 1798 B798  4C 48 B2      GOFUC	JMP FCERR
  163: 179B B79B  20 73 00      GTBYTC	JSR CHRGET
  164:                          
 FILE: basic.a65
 FILE: code17.a65
    1:                          
    2: 179E B79E  20 8A AD      GETBYT	JSR FRMNUM
    3: 17A1 B7A1  20 B8 B1      CONINT	JSR POSINT
    4: 17A4 B7A4  A6 64         	LDX FACMO
    5: 17A6 B7A6  D0 F0         	BNE GOFUC
    6: 17A8 B7A8  A6 65         	LDX FACLO
    7: 17AA B7AA  4C 79 00      	JMP CHRGOT
    8: 17AD B7AD  20 82 B7      VAL	JSR LEN1
    9: 17B0 B7B0  D0 03         	BNE @+5
   10: 17B2 B7B2  4C F7 B8      	JMP ZEROFC
   11: 17B5 B7B5  A6 7A         	LDX TXTPTR
   12: 17B7 B7B7  A4 7B         	LDY TXTPTR+1
   13: 17B9 B7B9  86 71         	STX STRNG2
   14: 17BB B7BB  84 72         	STY STRNG2+1
   15: 17BD B7BD  A6 22         	LDX INDEX1
   16: 17BF B7BF  86 7A         	STX TXTPTR
   17: 17C1 B7C1  18            	CLC
   18: 17C2 B7C2  65 22         	ADC INDEX1
   19: 17C4 B7C4  85 24         	STA INDEX2
   20: 17C6 B7C6  A6 23         	LDX INDEX1+1
   21: 17C8 B7C8  86 7B         	STX TXTPTR+1
   22: 17CA B7CA  90 01         	BCC VAL2
   23: 17CC B7CC  E8            	INX
   24: 17CD B7CD  86 25         VAL2	STX INDEX2+1
   25: 17CF B7CF  A0 00         	LDY #0
   26: 17D1 B7D1  B1 24         	LDA (INDEX2),Y
   27: 17D3 B7D3  48            	PHA
   28: 17D4 B7D4  98            	TYA             ;A=0
   29: 17D5 B7D5  91 24         	STA (INDEX2),Y
   30: 17D7 B7D7  20 79 00      	JSR CHRGOT
   31: 17DA B7DA  20 F3 BC      	JSR FIN
   32: 17DD B7DD  68            	PLA
   33: 17DE B7DE  A0 00         	LDY #0
   34: 17E0 B7E0  91 24         	STA (INDEX2),Y
   35: 17E2 B7E2  A6 71         ST2TXT	LDX STRNG2
   36: 17E4 B7E4  A4 72         	LDY STRNG2+1
   37: 17E6 B7E6  86 7A         	STX TXTPTR
   38: 17E8 B7E8  84 7B         	STY TXTPTR+1
   39: 17EA B7EA  60            VALRTS	RTS
   40: 17EB B7EB  20 8A AD      GETNUM	JSR FRMNUM
   41: 17EE B7EE  20 F7 B7      	JSR GETADR
   42: 17F1 B7F1  20 FD AE      COMBYT	JSR CHKCOM
   43: 17F4 B7F4  4C 9E B7      	JMP GETBYT
   44: 17F7 B7F7  A5 66         GETADR	LDA FACSGN
   45: 17F9 B7F9  30 9D         	BMI GOFUC
   46: 17FB B7FB  A5 61         	LDA FACEXP
   47: 17FD B7FD  C9 91         	CMP #145
   48: 17FF B7FF  B0 97         	BCS GOFUC
   49: 1801 B801  20 9B BC      	JSR QINT
   50: 1804 B804  A5 64         	LDA FACMO
   51: 1806 B806  A4 65         	LDY FACMO+1
   52: 1808 B808  84 14         	STY POKER
   53: 180A B80A  85 15         	STA POKER+1
   54: 180C B80C  60            	RTS
   55: 180D B80D  A5 15         PEEK	LDA POKER+1
   56: 180F B80F  48            	PHA
   57: 1810 B810  A5 14         	LDA POKER
   58: 1812 B812  48            	PHA
   59: 1813 B813  20 F7 B7      	JSR GETADR
   60: 1816 B816  A0 00         	LDY #0
   61: 1818 B818  B1 14         GETCON	LDA (POKER),Y
   62: 181A B81A  A8            	TAY
   63: 181B B81B  68            DOSGFL	PLA
   64: 181C B81C  85 14         	STA POKER
   65: 181E B81E  68            	PLA
   66: 181F B81F  85 15         	STA POKER+1
   67: 1821 B821  4C A2 B3      	JMP SNGFLT
   68: 1824 B824  20 EB B7      POKE	JSR GETNUM
   69: 1827 B827  8A            	TXA
   70: 1828 B828  A0 00         	LDY #0
   71: 182A B82A  91 14         	STA (POKER),Y
   72: 182C B82C  60            	RTS
   73: 182D B82D  20 EB B7      FNWAIT	JSR GETNUM
   74: 1830 B830  86 49         	STX ANDMSK
   75: 1832 B832  A2 00         	LDX #0
   76: 1834 B834  20 79 00      	JSR CHRGOT
   77: 1837 B837  F0 03         	BEQ STORDO
   78: 1839 B839  20 F1 B7      	JSR COMBYT
   79: 183C B83C  86 4A         STORDO	STX EORMSK
   80: 183E B83E  A0 00         	LDY #0
   81: 1840 B840  B1 14         WAITER	LDA (POKER),Y
   82: 1842 B842  45 4A         	EOR EORMSK
   83: 1844 B844  25 49         	AND ANDMSK
   84: 1846 B846  F0 F8         	BEQ WAITER
   85: 1848 B848  60            ZERRTS	RTS
   86: 1849 B849  A9 11         FADDH	LDA #<FHALF
   87: 184B B84B  A0 BF         	LDY #>FHALF
   88: 184D B84D  4C 67 B8      	JMP FADD
   89: 1850 B850  20 8C BA      FSUB	JSR CONUPK
   90: 1853 B853  A5 66         FSUBT	LDA FACSGN
   91: 1855 B855  49 FF         	EOR #$FF
   92: 1857 B857  85 66         	STA FACSGN
   93: 1859 B859  45 6E         	EOR ARGSGN
   94: 185B B85B  85 6F         	STA ARISGN
   95: 185D B85D  A5 61         	LDA FACEXP
   96: 185F B85F  4C 6A B8      	JMP FADDT
   97: 1862 B862  20 99 B9      FADD5	JSR SHIFTR
   98: 1865 B865  90 3C         	BCC FADD4
   99: 1867 B867  20 8C BA      FADD	JSR CONUPK
  100: 186A B86A  D0 03         FADDT	BNE @+5
  101: 186C B86C  4C FC BB      	JMP MOVFA
  102: 186F B86F  A6 70         	LDX FACOV
  103: 1871 B871  86 56         	STX OLDOV
  104: 1873 B873  A2 69         	LDX #ARGEXP
  105: 1875 B875  A5 69         	LDA ARGEXP
  106: 1877 B877  A8            FADDC	TAY
  107: 1878 B878  F0 CE         	BEQ ZERRTS
  108: 187A B87A  38            	SEC
  109: 187B B87B  E5 61         	SBC FACEXP
  110: 187D B87D  F0 24         	BEQ FADD4
  111: 187F B87F  90 12         	BCC FADDA
  112: 1881 B881  84 61         	STY FACEXP
  113: 1883 B883  A4 6E         	LDY ARGSGN
  114: 1885 B885  84 66         	STY FACSGN
  115: 1887 B887  49 FF         	EOR #$FF
  116: 1889 B889  69 00         	ADC #0
  117: 188B B88B  A0 00         	LDY #0
  118: 188D B88D  84 56         	STY OLDOV
  119: 188F B88F  A2 61         	LDX #FAC
  120: 1891 B891  D0 04         	BNE FADD1
  121: 1893 B893  A0 00         FADDA	LDY #0
  122: 1895 B895  84 70         	STY FACOV
  123: 1897 B897  C9 F9         FADD1	CMP #$F9
  124: 1899 B899  30 C7         	BMI FADD5
  125: 189B B89B  A8            	TAY
  126: 189C B89C  A5 70         	LDA FACOV
  127: 189E B89E  56 01         	LSR 1,X
  128: 18A0 B8A0  20 B0 B9      	JSR ROLSHF
  129: 18A3 B8A3  24 6F         FADD4	BIT ARISGN
  130: 18A5 B8A5  10 57         	BPL FADD2
  131: 18A7 B8A7  A0 61         	LDY #FACEXP
  132: 18A9 B8A9  E0 69         	CPX #ARGEXP
  133: 18AB B8AB  F0 02         	BEQ SUBIT
  134: 18AD B8AD  A0 69         	LDY #ARGEXP
  135: 18AF B8AF  38            SUBIT	SEC
  136: 18B0 B8B0  49 FF         	EOR #$FF
  137: 18B2 B8B2  65 56         	ADC OLDOV
  138: 18B4 B8B4  85 70         	STA FACOV
  139: 18B6 B8B6  B9 04 00      	LDA 3+ADDPRC,Y
  140: 18B9 B8B9  F5 04         	SBC 3+ADDPRC,X
  141: 18BB B8BB  85 65         	STA FACLO
  142: 18BD B8BD  B9 03 00      	LDA ADDPRC+2,Y
  143: 18C0 B8C0  F5 03         	SBC 2+ADDPRC,X
  144: 18C2 B8C2  85 64         	STA FACMO
  145: 18C4 B8C4  B9 02 00      	LDA 2,Y
  146: 18C7 B8C7  F5 02         	SBC 2,X
  147: 18C9 B8C9  85 63         	STA FACMOH
  148: 18CB B8CB  B9 01 00      	LDA 1,Y
  149: 18CE B8CE  F5 01         	SBC 1,X
  150: 18D0 B8D0  85 62         	STA FACHO
  151: 18D2 B8D2  B0 03         FADFLT	BCS NORMAL
  152: 18D4 B8D4  20 47 B9      	JSR NEGFAC
  153: 18D7 B8D7  A0 00         NORMAL	LDY #0
  154: 18D9 B8D9  98            	TYA
  155: 18DA B8DA  18            	CLC
  156: 18DB B8DB  A6 62         NORM3	LDX FACHO
  157: 18DD B8DD  D0 4A         	BNE NORM1
  158: 18DF B8DF  A6 63         	LDX FACHO+1
  159: 18E1 B8E1  86 62         	STX FACHO
  160: 18E3 B8E3  A6 64         	LDX FACMOH+1
  161:                          
 FILE: basic.a65
 FILE: code18.a65
    1:                          
    2: 18E5 B8E5  86 63         	STX FACMOH
    3: 18E7 B8E7  A6 65         	LDX FACMO+1
    4: 18E9 B8E9  86 64         	STX FACMO
    5: 18EB B8EB  A6 70         	LDX FACOV
    6: 18ED B8ED  86 65         	STX FACLO
    7: 18EF B8EF  84 70         	STY FACOV
    8: 18F1 B8F1  69 08         	ADC #$08
    9:                          ADDPR2	=ADDPRC+ADDPRC
   10:                          ADDPR4	=ADDPR2+ADDPR2
   11:                          ADDPR8	=ADDPR4+ADDPR4
   12: 18F3 B8F3  C9 20         	CMP #$18+ADDPR8
   13: 18F5 B8F5  D0 E4         	BNE NORM3
   14: 18F7 B8F7  A9 00         ZEROFC	LDA #0
   15: 18F9 B8F9  85 61         ZEROF1	STA FACEXP
   16: 18FB B8FB  85 66         ZEROML	STA FACSGN
   17: 18FD B8FD  60            	RTS
   18: 18FE B8FE  65 56         FADD2	ADC OLDOV
   19: 1900 B900  85 70         	STA FACOV
   20: 1902 B902  A5 65         	LDA FACLO
   21: 1904 B904  65 6D         	ADC ARGLO
   22: 1906 B906  85 65         	STA FACLO
   23: 1908 B908  A5 64         	LDA FACMO
   24: 190A B90A  65 6C         	ADC ARGMO
   25: 190C B90C  85 64         	STA FACMO
   26: 190E B90E  A5 63         	LDA FACMOH
   27: 1910 B910  65 6B         	ADC ARGMOH
   28: 1912 B912  85 63         	STA FACMOH
   29: 1914 B914  A5 62         	LDA FACHO
   30: 1916 B916  65 6A         	ADC ARGHO
   31: 1918 B918  85 62         	STA FACHO
   32: 191A B91A  4C 36 B9      	JMP SQUEEZ
   33: 191D B91D  69 01         NORM2	ADC #1
   34: 191F B91F  06 70         	ASL FACOV
   35: 1921 B921  26 65         	ROL FACLO
   36: 1923 B923  26 64         	ROL FACMO
   37: 1925 B925  26 63         	ROL FACMOH
   38: 1927 B927  26 62         	ROL FACHO
   39: 1929 B929  10 F2         NORM1	BPL NORM2
   40: 192B B92B  38            	SEC
   41: 192C B92C  E5 61         	SBC FACEXP
   42: 192E B92E  B0 C7         	BCS ZEROFC
   43: 1930 B930  49 FF         	EOR #$FF
   44: 1932 B932  69 01         	ADC #1
   45: 1934 B934  85 61         	STA FACEXP
   46: 1936 B936  90 0E         SQUEEZ	BCC RNDRTS
   47: 1938 B938  E6 61         RNDSHF	INC FACEXP
   48: 193A B93A  F0 42         	BEQ OVERR
   49: 193C B93C  66 62         	ROR FACHO
   50: 193E B93E  66 63         	ROR FACMOH
   51: 1940 B940  66 64         	ROR FACMO
   52: 1942 B942  66 65         	ROR FACLO
   53: 1944 B944  66 70         	ROR FACOV
   54: 1946 B946  60            RNDRTS	RTS
   55: 1947 B947  A5 66         NEGFAC	LDA FACSGN
   56: 1949 B949  49 FF         	EOR #$FF
   57: 194B B94B  85 66         	STA FACSGN
   58: 194D B94D  A5 62         NEGFCH	LDA FACHO
   59: 194F B94F  49 FF         	EOR #$FF
   60: 1951 B951  85 62         	STA FACHO
   61: 1953 B953  A5 63         	LDA FACMOH
   62: 1955 B955  49 FF         	EOR #$FF
   63: 1957 B957  85 63         	STA FACMOH
   64: 1959 B959  A5 64         	LDA FACMO
   65: 195B B95B  49 FF         	EOR #$FF
   66: 195D B95D  85 64         	STA FACMO
   67: 195F B95F  A5 65         	LDA FACLO
   68: 1961 B961  49 FF         	EOR #$FF
   69: 1963 B963  85 65         	STA FACLO
   70: 1965 B965  A5 70         	LDA FACOV
   71: 1967 B967  49 FF         	EOR #$FF
   72: 1969 B969  85 70         	STA FACOV
   73: 196B B96B  E6 70         	INC FACOV
   74: 196D B96D  D0 0E         	BNE INCFRT
   75: 196F B96F  E6 65         INCFAC	INC FACLO
   76: 1971 B971  D0 0A         	BNE INCFRT
   77: 1973 B973  E6 64         	INC FACMO
   78: 1975 B975  D0 06         	BNE INCFRT
   79: 1977 B977  E6 63         	INC FACMOH
   80: 1979 B979  D0 02         	BNE INCFRT
   81: 197B B97B  E6 62         	INC FACHO
   82: 197D B97D  60            INCFRT	RTS
   83: 197E B97E  A2 0F         OVERR	LDX #ERROV
   84: 1980 B980  4C 37 A4      	JMP ERROR
   85: 1983 B983  A2 25         MULSHF	LDX #RESHO-1
   86: 1985 B985  B4 04         SHFTR2	LDY 3+ADDPRC,X
   87: 1987 B987  84 70         	STY FACOV
   88: 1989 B989  B4 03         	LDY 3,X
   89: 198B B98B  94 04         	STY 4,X
   90: 198D B98D  B4 02         	LDY 2,X
   91: 198F B98F  94 03         	STY 3,X
   92: 1991 B991  B4 01         	LDY 1,X
   93: 1993 B993  94 02         	STY 2,X
   94: 1995 B995  A4 68         	LDY BITS
   95: 1997 B997  94 01         	STY 1,X
   96: 1999 B999  69 08         SHIFTR	ADC #$08
   97: 199B B99B  30 E8         	BMI SHFTR2
   98: 199D B99D  F0 E6         	BEQ SHFTR2
   99: 199F B99F  E9 08         	SBC #$08
  100: 19A1 B9A1  A8            	TAY
  101: 19A2 B9A2  A5 70         	LDA FACOV
  102: 19A4 B9A4  B0 14         	BCS SHFTRT
  103: 19A6 B9A6  16 01         SHFTR3	ASL 1,X
  104: 19A8 B9A8  90 02         	BCC SHFTR4
  105: 19AA B9AA  F6 01         	INC 1,X
  106: 19AC B9AC  76 01         SHFTR4	ROR 1,X
  107: 19AE B9AE  76 01         	ROR 1,X
  108: 19B0 B9B0  76 02         ROLSHF	ROR 2,X
  109: 19B2 B9B2  76 03         	ROR 3,X
  110: 19B4 B9B4  76 04         	ROR 4,X
  111: 19B6 B9B6  6A            	ROR
  112: 19B7 B9B7  C8            	INY
  113: 19B8 B9B8  D0 EC         	BNE SHFTR3
  114: 19BA B9BA  18            SHFTRT	CLC
  115: 19BB B9BB  60            	RTS
  116: 19BC B9BC  81 00 00      FONE	.BYTE $81,$00,$00,$00,$00
  117: 19C1 B9C1  03 7F 5E      LOGCN2	.BYTE $03,$7F,$5E,$56
  118: 19C5 B9C5  CB 79 80      	.BYTE $CB,$79,$80,$13
  119: 19C9 B9C9  9B 0B 64      	.BYTE $9B,$0B,$64,$80
  120: 19CD B9CD  76 38 93      	.BYTE $76,$38,$93,$16
  121: 19D1 B9D1  82 38 AA      	.BYTE $82,$38,$AA,$3B,$20
  122: 19D6 B9D6  80 35 04      SQR05	.BYTE $80,$35,$04,$F3,$34
  123: 19DB B9DB  81 35 04      SQR20	.BYTE $81,$35,$04,$F3,$34
  124: 19E0 B9E0  80 80 00      NEGHLF	.BYTE $80,$80,$00,$00,$00
  125: 19E5 B9E5  80 31 72      LOG2	.BYTE $80,$31,$72,$17,$F8
  126:                          
 FILE: basic.a65
 FILE: code19.a65
    1:                          
    2: 19EA B9EA  20 2B BC      LOG	JSR SIGN
    3: 19ED B9ED  F0 02         	BEQ LOGERR
    4: 19EF B9EF  10 03         	BPL LOG1
    5: 19F1 B9F1  4C 48 B2      LOGERR	JMP FCERR
    6: 19F4 B9F4  A5 61         LOG1	LDA FACEXP
    7: 19F6 B9F6  E9 7F         	SBC #$7F
    8: 19F8 B9F8  48            	PHA
    9: 19F9 B9F9  A9 80         	LDA #$80
   10: 19FB B9FB  85 61         	STA FACEXP
   11: 19FD B9FD  A9 D6         	LDA #<SQR05
   12: 19FF B9FF  A0 B9         	LDY #>SQR05
   13: 1A01 BA01  20 67 B8      	JSR FADD
   14: 1A04 BA04  A9 DB         	LDA #<SQR20
   15: 1A06 BA06  A0 B9         	LDY #>SQR20
   16: 1A08 BA08  20 0F BB      	JSR FDIV
   17: 1A0B BA0B  A9 BC         	LDA #<FONE
   18: 1A0D BA0D  A0 B9         	LDY #>FONE
   19: 1A0F BA0F  20 50 B8      	JSR FSUB
   20: 1A12 BA12  A9 C1         	LDA #<LOGCN2
   21: 1A14 BA14  A0 B9         	LDY #>LOGCN2
   22: 1A16 BA16  20 43 E0      	JSR POLYX
   23: 1A19 BA19  A9 E0         	LDA #<NEGHLF
   24: 1A1B BA1B  A0 B9         	LDY #>NEGHLF
   25: 1A1D BA1D  20 67 B8      	JSR FADD
   26: 1A20 BA20  68            	PLA
   27: 1A21 BA21  20 7E BD      	JSR FINLOG
   28: 1A24 BA24  A9 E5         	LDA #<LOG2
   29: 1A26 BA26  A0 B9         	LDY #>LOG2
   30: 1A28 BA28  20 8C BA      FMULT	JSR CONUPK
   31: 1A2B BA2B  D0 03         FMULTT	BNE @+5
   32: 1A2D BA2D  4C 8B BA      	JMP MULTRT
   33: 1A30 BA30  20 B7 BA      	JSR MULDIV
   34: 1A33 BA33  A9 00         	LDA #0
   35: 1A35 BA35  85 26         	STA RESHO
   36: 1A37 BA37  85 27         	STA RESMOH
   37: 1A39 BA39  85 28         	STA RESMO
   38: 1A3B BA3B  85 29         	STA RESLO
   39: 1A3D BA3D  A5 70         	LDA FACOV
   40: 1A3F BA3F  20 59 BA      	JSR MLTPLY
   41: 1A42 BA42  A5 65         	LDA FACLO
   42: 1A44 BA44  20 59 BA      	JSR MLTPLY
   43: 1A47 BA47  A5 64         	LDA FACMO
   44: 1A49 BA49  20 59 BA      	JSR MLTPLY
   45: 1A4C BA4C  A5 63         	LDA FACMOH
   46: 1A4E BA4E  20 59 BA      	JSR MLTPLY
   47: 1A51 BA51  A5 62         	LDA FACHO
   48: 1A53 BA53  20 5E BA      	JSR MLTPL1
   49: 1A56 BA56  4C 8F BB      	JMP MOVFR
   50: 1A59 BA59  D0 03         MLTPLY	BNE @+5
   51: 1A5B BA5B  4C 83 B9      	JMP MULSHF
   52: 1A5E BA5E  4A            MLTPL1	LSR
   53: 1A5F BA5F  09 80         	ORA #$80
   54: 1A61 BA61  A8            MLTPL2	TAY
   55: 1A62 BA62  90 19         	BCC MLTPL3
   56: 1A64 BA64  18            	CLC
   57: 1A65 BA65  A5 29         	LDA RESLO
   58: 1A67 BA67  65 6D         	ADC ARGLO
   59: 1A69 BA69  85 29         	STA RESLO
   60: 1A6B BA6B  A5 28         	LDA RESMO
   61: 1A6D BA6D  65 6C         	ADC ARGMO
   62: 1A6F BA6F  85 28         	STA RESMO
   63: 1A71 BA71  A5 27         	LDA RESMOH
   64: 1A73 BA73  65 6B         	ADC ARGMOH
   65: 1A75 BA75  85 27         	STA RESMOH
   66: 1A77 BA77  A5 26         	LDA RESHO
   67: 1A79 BA79  65 6A         	ADC ARGHO
   68: 1A7B BA7B  85 26         	STA RESHO
   69: 1A7D BA7D  66 26         MLTPL3	ROR RESHO
   70: 1A7F BA7F  66 27         	ROR RESMOH
   71: 1A81 BA81  66 28         	ROR RESMO
   72: 1A83 BA83  66 29         	ROR RESLO
   73: 1A85 BA85  66 70         	ROR FACOV
   74: 1A87 BA87  98            	TYA
   75: 1A88 BA88  4A            	LSR
   76: 1A89 BA89  D0 D6         	BNE MLTPL2
   77: 1A8B BA8B  60            MULTRT	RTS
   78: 1A8C BA8C  85 22         CONUPK	STA INDEX1
   79: 1A8E BA8E  84 23         	STY INDEX1+1
   80: 1A90 BA90  A0 04         	LDY #3+ADDPRC
   81: 1A92 BA92  B1 22         	LDA (INDEX1),Y
   82: 1A94 BA94  85 6D         	STA ARGLO
   83: 1A96 BA96  88            	DEY
   84: 1A97 BA97  B1 22         	LDA (INDEX),Y
   85: 1A99 BA99  85 6C         	STA ARGMO
   86: 1A9B BA9B  88            	DEY
   87: 1A9C BA9C  B1 22         	LDA (INDEX1),Y
   88: 1A9E BA9E  85 6B         	STA ARGMOH
   89: 1AA0 BAA0  88            	DEY
   90: 1AA1 BAA1  B1 22         	LDA (INDEX1),Y
   91: 1AA3 BAA3  85 6E         	STA ARGSGN
   92: 1AA5 BAA5  45 66         	EOR FACSGN
   93: 1AA7 BAA7  85 6F         	STA ARISGN
   94: 1AA9 BAA9  A5 6E         	LDA ARGSGN
   95: 1AAB BAAB  09 80         	ORA #$80
   96: 1AAD BAAD  85 6A         	STA ARGHO
   97: 1AAF BAAF  88            	DEY
   98: 1AB0 BAB0  B1 22         	LDA (INDEX1),Y
   99: 1AB2 BAB2  85 69         	STA ARGEXP
  100: 1AB4 BAB4  A5 61         	LDA FACEXP
  101: 1AB6 BAB6  60            	RTS
  102: 1AB7 BAB7  A5 69         MULDIV	LDA ARGEXP
  103: 1AB9 BAB9  F0 1F         MLDEXP	BEQ ZEREMV
  104: 1ABB BABB  18            	CLC
  105: 1ABC BABC  65 61         	ADC FACEXP
  106: 1ABE BABE  90 04         	BCC TRYOFF
  107: 1AC0 BAC0  30 1D         	BMI GOOVER
  108: 1AC2 BAC2  18            	CLC
  109: 1AC3 BAC3  2C            	.BYTE $2C
  110: 1AC4 BAC4  10 14         TRYOFF	BPL ZEREMV
  111: 1AC6 BAC6  69 80         	ADC #$80
  112: 1AC8 BAC8  85 61         	STA FACEXP
  113: 1ACA BACA  D0 03         	BNE @+5
  114: 1ACC BACC  4C FB B8      	JMP ZEROML
  115: 1ACF BACF  A5 6F         	LDA ARISGN
  116: 1AD1 BAD1  85 66         	STA FACSGN
  117: 1AD3 BAD3  60            	RTS
  118: 1AD4 BAD4  A5 66         MLDVEX	LDA FACSGN
  119: 1AD6 BAD6  49 FF         	EOR #$FF
  120: 1AD8 BAD8  30 05         	BMI GOOVER
  121: 1ADA BADA  68            ZEREMV	PLA
  122: 1ADB BADB  68            	PLA
  123: 1ADC BADC  4C F7 B8      	JMP ZEROFC
  124: 1ADF BADF  4C 7E B9      GOOVER	JMP OVERR
  125: 1AE2 BAE2  20 0C BC      MUL10	JSR MOVAF
  126: 1AE5 BAE5  AA            	TAX
  127: 1AE6 BAE6  F0 10         	BEQ MUL10R
  128: 1AE8 BAE8  18            	CLC
  129: 1AE9 BAE9  69 02         	ADC #2
  130: 1AEB BAEB  B0 F2         	BCS GOOVER
  131: 1AED BAED  A2 00         FINML6	LDX #0
  132: 1AEF BAEF  86 6F         	STX ARISGN
  133: 1AF1 BAF1  20 77 B8      	JSR FADDC
  134: 1AF4 BAF4  E6 61         	INC FACEXP
  135: 1AF6 BAF6  F0 E7         	BEQ GOOVER
  136: 1AF8 BAF8  60            MUL10R	RTS
  137: 1AF9 BAF9  84 20 00      TENC	.BYTE $84,$20,0,0,0
  138: 1AFE BAFE  20 0C BC      DIV10	JSR MOVAF
  139: 1B01 BB01  A9 F9         	LDA #<TENC
  140: 1B03 BB03  A0 BA         	LDY #>TENC
  141: 1B05 BB05  A2 00         	LDX #0
  142: 1B07 BB07  86 6F         FDIVF	STX ARISGN
  143: 1B09 BB09  20 A2 BB      	JSR MOVFM
  144: 1B0C BB0C  4C 12 BB      	JMP FDIVT
  145: 1B0F BB0F  20 8C BA      FDIV	JSR CONUPK
  146: 1B12 BB12  F0 76         FDIVT	BEQ DV0ERR
  147: 1B14 BB14  20 1B BC      	JSR ROUND
  148: 1B17 BB17  A9 00         	LDA #0
  149: 1B19 BB19  38            	SEC
  150: 1B1A BB1A  E5 61         	SBC FACEXP
  151: 1B1C BB1C  85 61         	STA FACEXP
  152: 1B1E BB1E  20 B7 BA      	JSR MULDIV
  153: 1B21 BB21  E6 61         	INC FACEXP
  154: 1B23 BB23  F0 BA         	BEQ GOOVER
  155: 1B25 BB25  A2 FC         	LDX #253-ADDPRC
  156: 1B27 BB27  A9 01         	LDA #1
  157: 1B29 BB29  A4 6A         DIVIDE	LDY ARGHO
  158: 1B2B BB2B  C4 62         	CPY FACHO
  159: 1B2D BB2D  D0 10         	BNE SAVQUO
  160: 1B2F BB2F  A4 6B         	LDY ARGMOH
  161: 1B31 BB31  C4 63         	CPY FACMOH
  162: 1B33 BB33  D0 0A         	BNE SAVQUO
  163: 1B35 BB35  A4 6C         	LDY ARGMO
  164: 1B37 BB37  C4 64         	CPY FACMO
  165: 1B39 BB39  D0 04         	BNE SAVQUO
  166: 1B3B BB3B  A4 6D         	LDY ARGLO
  167: 1B3D BB3D  C4 65         	CPY FACLO
  168: 1B3F BB3F  08            SAVQUO	PHP
  169: 1B40 BB40  2A            	ROL
  170: 1B41 BB41  90 09         	BCC QSHFT
  171: 1B43 BB43  E8            	INX
  172: 1B44 BB44  95 29         	STA RESLO,X
  173: 1B46 BB46  F0 32         	BEQ LD100
  174: 1B48 BB48  10 34         	BPL DIVNRM
  175: 1B4A BB4A  A9 01         	LDA #1
  176: 1B4C BB4C  28            QSHFT	PLP
  177: 1B4D BB4D  B0 0E         	BCS DIVSUB
  178: 1B4F BB4F  06 6D         SHFARG	ASL ARGLO
  179: 1B51 BB51  26 6C         	ROL ARGMO
  180: 1B53 BB53  26 6B         	ROL ARGMOH
  181: 1B55 BB55  26 6A         	ROL ARGHO
  182: 1B57 BB57  B0 E6         	BCS SAVQUO
  183: 1B59 BB59  30 CE         	BMI DIVIDE
  184: 1B5B BB5B  10 E2         	BPL SAVQUO
  185: 1B5D BB5D  A8            DIVSUB	TAY
  186: 1B5E BB5E  A5 6D         	LDA ARGLO
  187: 1B60 BB60  E5 65         	SBC FACLO
  188: 1B62 BB62  85 6D         	STA ARGLO
  189: 1B64 BB64  A5 6C         	LDA ARGMO
  190: 1B66 BB66  E5 64         	SBC FACMO
  191: 1B68 BB68  85 6C         	STA ARGMO
  192: 1B6A BB6A  A5 6B         	LDA ARGMOH
  193: 1B6C BB6C  E5 63         	SBC FACMOH
  194: 1B6E BB6E  85 6B         	STA ARGMOH
  195: 1B70 BB70  A5 6A         	LDA ARGHO
  196: 1B72 BB72  E5 62         	SBC FACHO
  197: 1B74 BB74  85 6A         	STA ARGHO
  198: 1B76 BB76  98            	TYA
  199: 1B77 BB77  4C 4F BB      	JMP SHFARG
  200: 1B7A BB7A  A9 40         LD100	LDA #$40
  201: 1B7C BB7C  D0 CE         	BNE QSHFT
  202: 1B7E BB7E  0A            DIVNRM	ASL
  203: 1B7F BB7F  0A            	ASL
  204: 1B80 BB80  0A            	ASL
  205: 1B81 BB81  0A            	ASL
  206: 1B82 BB82  0A            	ASL
  207: 1B83 BB83  0A            	ASL
  208: 1B84 BB84  85 70         	STA FACOV
  209: 1B86 BB86  28            	PLP
  210: 1B87 BB87  4C 8F BB      	JMP MOVFR
  211: 1B8A BB8A  A2 14         DV0ERR	LDX #ERRDVO
  212: 1B8C BB8C  4C 37 A4      	JMP ERROR
  213:                          
 FILE: basic.a65
 FILE: code20.a65
    1:                          
    2: 1B8F BB8F  A5 26         MOVFR	LDA RESHO
    3: 1B91 BB91  85 62         	STA FACHO
    4: 1B93 BB93  A5 27         	LDA RESMOH
    5: 1B95 BB95  85 63         	STA FACMOH
    6: 1B97 BB97  A5 28         	LDA RESMO
    7: 1B99 BB99  85 64         	STA FACMO
    8: 1B9B BB9B  A5 29         	LDA RESLO
    9: 1B9D BB9D  85 65         	STA FACLO
   10: 1B9F BB9F  4C D7 B8      	JMP NORMAL
   11: 1BA2 BBA2  85 22         MOVFM	STA INDEX1
   12: 1BA4 BBA4  84 23         	STY INDEX1+1
   13: 1BA6 BBA6  A0 04         	LDY #3+ADDPRC
   14: 1BA8 BBA8  B1 22         	LDA (INDEX1),Y
   15: 1BAA BBAA  85 65         	STA FACLO
   16: 1BAC BBAC  88            	DEY
   17: 1BAD BBAD  B1 22         	LDA (INDEX1),Y
   18: 1BAF BBAF  85 64         	STA FACMO
   19: 1BB1 BBB1  88            	DEY
   20: 1BB2 BBB2  B1 22         	LDA (INDEX1),Y
   21: 1BB4 BBB4  85 63         	STA FACMOH
   22: 1BB6 BBB6  88            	DEY
   23: 1BB7 BBB7  B1 22         	LDA (INDEX1),Y
   24: 1BB9 BBB9  85 66         	STA FACSGN
   25: 1BBB BBBB  09 80         	ORA #$80
   26: 1BBD BBBD  85 62         	STA FACHO
   27: 1BBF BBBF  88            	DEY
   28: 1BC0 BBC0  B1 22         	LDA (INDEX1),Y
   29: 1BC2 BBC2  85 61         	STA FACEXP
   30: 1BC4 BBC4  84 70         	STY FACOV
   31: 1BC6 BBC6  60            	RTS   
   32: 1BC7 BBC7  A2 5C         MOV2F	LDX #TEMPF2
   33: 1BC9 BBC9  2C            	.BYTE $2C
   34: 1BCA BBCA  A2 57         MOV1F	LDX #TEMPF1
   35: 1BCC BBCC  A0 00         	LDY #0
   36: 1BCE BBCE  F0 04         	BEQ MOVMF
   37: 1BD0 BBD0  A6 49         MOVVF	LDX FORPNT
   38: 1BD2 BBD2  A4 4A         	LDY FORPNT+1
   39: 1BD4 BBD4  20 1B BC      MOVMF	JSR ROUND
   40: 1BD7 BBD7  86 22         	STX INDEX1
   41: 1BD9 BBD9  84 23         	STY INDEX1+1
   42: 1BDB BBDB  A0 04         	LDY #3+ADDPRC
   43: 1BDD BBDD  A5 65         	LDA FACLO
   44: 1BDF BBDF  91 22         	STA (INDEX),Y
   45: 1BE1 BBE1  88            	DEY
   46: 1BE2 BBE2  A5 64         	LDA FACMO
   47: 1BE4 BBE4  91 22         	STA (INDEX),Y
   48: 1BE6 BBE6  88            	DEY
   49: 1BE7 BBE7  A5 63         	LDA FACMOH
   50: 1BE9 BBE9  91 22         	STA (INDEX),Y
   51: 1BEB BBEB  88            	DEY
   52: 1BEC BBEC  A5 66         	LDA FACSGN
   53: 1BEE BBEE  09 7F         	ORA #$7F
   54: 1BF0 BBF0  25 62         	AND FACHO
   55: 1BF2 BBF2  91 22         	STA (INDEX),Y
   56: 1BF4 BBF4  88            	DEY
   57: 1BF5 BBF5  A5 61         	LDA FACEXP
   58: 1BF7 BBF7  91 22         	STA (INDEX),Y
   59: 1BF9 BBF9  84 70         	STY FACOV
   60: 1BFB BBFB  60            	RTS
   61: 1BFC BBFC  A5 6E         MOVFA	LDA ARGSGN
   62: 1BFE BBFE  85 66         MOVFA1	STA FACSGN
   63: 1C00 BC00  A2 05         	LDX #4+ADDPRC
   64: 1C02 BC02  B5 68         MOVFAL	LDA ARGEXP-1,X
   65: 1C04 BC04  95 60         	STA FACEXP-1,X
   66: 1C06 BC06  CA            	DEX
   67: 1C07 BC07  D0 F9         	BNE MOVFAL
   68: 1C09 BC09  86 70         	STX FACOV
   69: 1C0B BC0B  60            	RTS
   70: 1C0C BC0C  20 1B BC      MOVAF	JSR ROUND
   71: 1C0F BC0F  A2 06         MOVEF	LDX #5+ADDPRC
   72: 1C11 BC11  B5 60         MOVAFL	LDA FACEXP-1,X
   73: 1C13 BC13  95 68         	STA ARGEXP-1,X
   74: 1C15 BC15  CA            	DEX
   75: 1C16 BC16  D0 F9         	BNE MOVAFL
   76: 1C18 BC18  86 70         	STX FACOV
   77: 1C1A BC1A  60            MOVRTS	RTS
   78: 1C1B BC1B  A5 61         ROUND	LDA FACEXP
   79: 1C1D BC1D  F0 FB         	BEQ MOVRTS
   80: 1C1F BC1F  06 70         	ASL FACOV
   81: 1C21 BC21  90 F7         	BCC MOVRTS
   82: 1C23 BC23  20 6F B9      INCRND	JSR INCFAC
   83: 1C26 BC26  D0 F2         	BNE MOVRTS
   84: 1C28 BC28  4C 38 B9      	JMP RNDSHF
   85: 1C2B BC2B  A5 61         SIGN	LDA FACEXP
   86: 1C2D BC2D  F0 09         	BEQ SIGNRT
   87: 1C2F BC2F  A5 66         FCSIGN	LDA FACSGN
   88: 1C31 BC31  2A            FCOMPS	ROL
   89: 1C32 BC32  A9 FF         	LDA #$FF
   90: 1C34 BC34  B0 02         	BCS SIGNRT
   91: 1C36 BC36  A9 01         	LDA #1
   92: 1C38 BC38  60            SIGNRT	RTS
   93: 1C39 BC39  20 2B BC      SGN	JSR SIGN
   94: 1C3C BC3C  85 62         FLOAT	STA FACHO
   95: 1C3E BC3E  A9 00         	LDA #0
   96: 1C40 BC40  85 63         	STA FACHO+1
   97: 1C42 BC42  A2 88         	LDX #$88
   98: 1C44 BC44  A5 62         FLOATS	LDA FACHO
   99: 1C46 BC46  49 FF         	EOR #$FF
  100: 1C48 BC48  2A            	ROL
  101: 1C49 BC49  A9 00         FLOATC	LDA #0
  102: 1C4B BC4B  85 65         	STA FACLO
  103: 1C4D BC4D  85 64         	STA FACMO
  104: 1C4F BC4F  86 61         FLOATB	STX FACEXP
  105: 1C51 BC51  85 70         	STA FACOV
  106: 1C53 BC53  85 66         	STA FACSGN
  107: 1C55 BC55  4C D2 B8      	JMP FADFLT
  108: 1C58 BC58  46 66         ABS	LSR FACSGN
  109: 1C5A BC5A  60            	RTS
  110: 1C5B BC5B  85 24         FCOMP	STA INDEX2
  111: 1C5D BC5D  84 25         FCOMPN	STY INDEX2+1
  112: 1C5F BC5F  A0 00         	LDY #0
  113: 1C61 BC61  B1 24         	LDA (INDEX2),Y
  114: 1C63 BC63  C8            	INY
  115: 1C64 BC64  AA            	TAX
  116: 1C65 BC65  F0 C4         	BEQ SIGN
  117: 1C67 BC67  B1 24         	LDA (INDEX2),Y
  118: 1C69 BC69  45 66         	EOR FACSGN
  119: 1C6B BC6B  30 C2         	BMI FCSIGN
  120: 1C6D BC6D  E4 61         	CPX FACEXP
  121: 1C6F BC6F  D0 21         	BNE FCOMPC
  122: 1C71 BC71  B1 24         	LDA (INDEX2),Y
  123: 1C73 BC73  09 80         	ORA #$80
  124: 1C75 BC75  C5 62         	CMP FACHO
  125: 1C77 BC77  D0 19         	BNE FCOMPC
  126: 1C79 BC79  C8            	INY
  127: 1C7A BC7A  B1 24         	LDA (INDEX2),Y
  128: 1C7C BC7C  C5 63         	CMP FACMOH
  129: 1C7E BC7E  D0 12         	BNE FCOMPC
  130: 1C80 BC80  C8            	INY
  131: 1C81 BC81  B1 24         	LDA (INDEX2),Y
  132: 1C83 BC83  C5 64         	CMP FACMO
  133: 1C85 BC85  D0 0B         	BNE FCOMPC
  134: 1C87 BC87  C8            	INY
  135: 1C88 BC88  A9 7F         	LDA #$7F
  136: 1C8A BC8A  C5 70         	CMP FACOV
  137: 1C8C BC8C  B1 24         	LDA (INDEX2),Y
  138: 1C8E BC8E  E5 65         	SBC FACLO
  139: 1C90 BC90  F0 28         	BEQ QINTRT
  140: 1C92 BC92  A5 66         FCOMPC	LDA FACSGN
  141: 1C94 BC94  90 02         	BCC FCOMPD
  142: 1C96 BC96  49 FF         	EOR #$FF
  143: 1C98 BC98  4C 31 BC      FCOMPD	JMP FCOMPS
  144:                          
 FILE: basic.a65
 FILE: code21.a65
    1:                          
    2: 1C9B BC9B  A5 61         QINT	LDA FACEXP
    3: 1C9D BC9D  F0 4A         	BEQ CLRFAC
    4: 1C9F BC9F  38            	SEC
    5: 1CA0 BCA0  E9 A0         	SBC #ADDPR8+$98
    6: 1CA2 BCA2  24 66         	BIT FACSGN
    7: 1CA4 BCA4  10 09         	BPL QISHFT
    8: 1CA6 BCA6  AA            	TAX
    9: 1CA7 BCA7  A9 FF         	LDA #$FF
   10: 1CA9 BCA9  85 68         	STA BITS
   11: 1CAB BCAB  20 4D B9      	JSR NEGFCH
   12: 1CAE BCAE  8A            	TXA
   13: 1CAF BCAF  A2 61         QISHFT	LDX #FAC
   14: 1CB1 BCB1  C9 F9         	CMP #$F9
   15: 1CB3 BCB3  10 06         	BPL QINT1
   16: 1CB5 BCB5  20 99 B9      	JSR SHIFTR
   17: 1CB8 BCB8  84 68         	STY BITS
   18: 1CBA BCBA  60            QINTRT	RTS
   19: 1CBB BCBB  A8            QINT1	TAY
   20: 1CBC BCBC  A5 66         	LDA FACSGN
   21: 1CBE BCBE  29 80         	AND #$80
   22: 1CC0 BCC0  46 62         	LSR FACHO
   23: 1CC2 BCC2  05 62         	ORA FACHO
   24: 1CC4 BCC4  85 62         	STA FACHO
   25: 1CC6 BCC6  20 B0 B9      	JSR ROLSHF
   26: 1CC9 BCC9  84 68         	STY BITS
   27: 1CCB BCCB  60            	RTS
   28: 1CCC BCCC  A5 61         INT	LDA FACEXP
   29: 1CCE BCCE  C9 A0         	CMP #ADDPR8+$98
   30: 1CD0 BCD0  B0 20         	BCS INTRTS
   31: 1CD2 BCD2  20 9B BC      	JSR QINT
   32: 1CD5 BCD5  84 70         	STY FACOV
   33: 1CD7 BCD7  A5 66         	LDA FACSGN
   34: 1CD9 BCD9  84 66         	STY FACSGN
   35: 1CDB BCDB  49 80         	EOR #$80
   36: 1CDD BCDD  2A            	ROL
   37: 1CDE BCDE  A9 A0         	LDA #$98+8
   38: 1CE0 BCE0  85 61         	STA FACEXP
   39: 1CE2 BCE2  A5 65         	LDA FACLO
   40: 1CE4 BCE4  85 07         	STA INTEGR
   41: 1CE6 BCE6  4C D2 B8      	JMP FADFLT
   42: 1CE9 BCE9  85 62         CLRFAC	STA FACHO
   43: 1CEB BCEB  85 63         	STA FACMOH
   44: 1CED BCED  85 64         	STA FACMO
   45: 1CEF BCEF  85 65         	STA FACLO
   46: 1CF1 BCF1  A8            	TAY 
   47: 1CF2 BCF2  60            INTRTS	RTS
   48: 1CF3 BCF3  A0 00         FIN	LDY #0
   49: 1CF5 BCF5  A2 0A         	LDX #9+ADDPRC
   50: 1CF7 BCF7  94 5D         FINZLP	STY DECCNT,X
   51: 1CF9 BCF9  CA            	DEX
   52: 1CFA BCFA  10 FB         	BPL FINZLP
   53: 1CFC BCFC  90 0F         	BCC FINDGQ
   54: 1CFE BCFE  C9 2D         	CMP #'-'
   55: 1D00 BD00  D0 04         	BNE QPLUS
   56: 1D02 BD02  86 67         	STX SGNFLG
   57: 1D04 BD04  F0 04         	BEQ FINC
   58: 1D06 BD06  C9 2B         QPLUS	CMP #'+'
   59: 1D08 BD08  D0 05         	BNE FIN1
   60: 1D0A BD0A  20 73 00      FINC	JSR CHRGET
   61: 1D0D BD0D  90 5B         FINDGQ	BCC FINDIG
   62: 1D0F BD0F  C9 2E         FIN1	CMP #'.'
   63: 1D11 BD11  F0 2E         	BEQ FINDP
   64: 1D13 BD13  C9 45         	CMP #'E'
   65: 1D15 BD15  D0 30         	BNE FINE
   66: 1D17 BD17  20 73 00      	JSR CHRGET
   67: 1D1A BD1A  90 17         	BCC FNEDG1
   68: 1D1C BD1C  C9 AB         	CMP #MINUTK
   69: 1D1E BD1E  F0 0E         	BEQ FINEC1
   70: 1D20 BD20  C9 2D         	CMP #'-'
   71: 1D22 BD22  F0 0A         	BEQ FINEC1
   72: 1D24 BD24  C9 AA         	CMP #PLUSTK
   73: 1D26 BD26  F0 08         	BEQ FINEC
   74: 1D28 BD28  C9 2B         	CMP #'+'
   75: 1D2A BD2A  F0 04         	BEQ FINEC
   76: 1D2C BD2C  D0 07         	BNE FINEC2
   77: 1D2E BD2E  66 60         FINEC1	ROR EXPSGN
   78: 1D30 BD30  20 73 00      FINEC	JSR CHRGET
   79: 1D33 BD33  90 5C         FNEDG1	BCC FINEDG
   80: 1D35 BD35  24 60         FINEC2	BIT EXPSGN
   81: 1D37 BD37  10 0E         	BPL FINE
   82: 1D39 BD39  A9 00         	LDA #0
   83: 1D3B BD3B  38            	SEC
   84: 1D3C BD3C  E5 5E         	SBC TENEXP
   85: 1D3E BD3E  4C 49 BD      	JMP FINE1
   86: 1D41 BD41  66 5F         FINDP	ROR DPTFLG
   87: 1D43 BD43  24 5F         	BIT DPTFLG
   88: 1D45 BD45  50 C3         	BVC FINC
   89: 1D47 BD47  A5 5E         FINE	LDA TENEXP
   90: 1D49 BD49  38            FINE1	SEC
   91: 1D4A BD4A  E5 5D         	SBC DECCNT
   92: 1D4C BD4C  85 5E         	STA TENEXP
   93: 1D4E BD4E  F0 12         	BEQ FINQNG
   94: 1D50 BD50  10 09         	BPL FINMUL
   95: 1D52 BD52  20 FE BA      FINDIV	JSR DIV10
   96: 1D55 BD55  E6 5E         	INC TENEXP
   97: 1D57 BD57  D0 F9         	BNE FINDIV
   98: 1D59 BD59  F0 07         	BEQ FINQNG
   99: 1D5B BD5B  20 E2 BA      FINMUL	JSR MUL10
  100: 1D5E BD5E  C6 5E         	DEC TENEXP
  101: 1D60 BD60  D0 F9         	BNE FINMUL
  102: 1D62 BD62  A5 67         FINQNG	LDA SGNFLG
  103: 1D64 BD64  30 01         	BMI NEGXQS
  104: 1D66 BD66  60            	RTS
  105: 1D67 BD67  4C B4 BF      NEGXQS	JMP NEGOP
  106: 1D6A BD6A  48            FINDIG	PHA
  107: 1D6B BD6B  24 5F         	BIT DPTFLG
  108: 1D6D BD6D  10 02         	BPL FINDG1
  109: 1D6F BD6F  E6 5D         	INC DECCNT
  110: 1D71 BD71  20 E2 BA      FINDG1	JSR MUL10
  111: 1D74 BD74  68            	PLA
  112: 1D75 BD75  38            	SEC
  113: 1D76 BD76  E9 30         	SBC #'0'
  114: 1D78 BD78  20 7E BD      	JSR FINLOG
  115: 1D7B BD7B  4C 0A BD      	JMP FINC
  116: 1D7E BD7E  48            FINLOG	PHA
  117: 1D7F BD7F  20 0C BC      	JSR MOVAF
  118: 1D82 BD82  68            	PLA
  119: 1D83 BD83  20 3C BC      	JSR FLOAT
  120: 1D86 BD86  A5 6E         	LDA ARGSGN
  121: 1D88 BD88  45 66         	EOR FACSGN
  122: 1D8A BD8A  85 6F         	STA ARISGN
  123: 1D8C BD8C  A6 61         	LDX FACEXP
  124: 1D8E BD8E  4C 6A B8      	JMP FADDT
  125: 1D91 BD91  A5 5E         FINEDG	LDA TENEXP
  126: 1D93 BD93  C9 0A         	CMP #10
  127: 1D95 BD95  90 09         	BCC MLEX10
  128: 1D97 BD97  A9 64         	LDA #100
  129: 1D99 BD99  24 60         	BIT EXPSGN
  130: 1D9B BD9B  30 11         	BMI MLEXMI
  131: 1D9D BD9D  4C 7E B9      	JMP OVERR
  132: 1DA0 BDA0  0A            MLEX10	ASL
  133: 1DA1 BDA1  0A            	ASL
  134: 1DA2 BDA2  18            	CLC
  135: 1DA3 BDA3  65 5E         	ADC TENEXP
  136: 1DA5 BDA5  0A            	ASL
  137: 1DA6 BDA6  18            	CLC
  138: 1DA7 BDA7  A0 00         	LDY #0
  139: 1DA9 BDA9  71 7A         	ADC (TXTPTR),Y
  140: 1DAB BDAB  38            	SEC
  141: 1DAC BDAC  E9 30         	SBC #'0'
  142: 1DAE BDAE  85 5E         MLEXMI	STA TENEXP
  143: 1DB0 BDB0  4C 30 BD      	JMP FINEC
  144:                          
 FILE: basic.a65
 FILE: code22.a65
    1:                          
    2: 1DB3 BDB3  9B 3E BC      N0999	.BYTE $9B,$3E,$BC,$1F,$FD
    3: 1DB8 BDB8  9E 6E 6B      N9999	.BYTE $9E,$6E,$6B,$27,$FD
    4: 1DBD BDBD  9E 6E 6B      NMIL	.BYTE $9E,$6E,$6B,$28,$00
    5: 1DC2 BDC2  A9 71         INPRT	LDA #<INTXT
    6: 1DC4 BDC4  A0 A3         	LDY #>INTXT
    7: 1DC6 BDC6  20 DA BD      	JSR STROU2
    8: 1DC9 BDC9  A5 3A         	LDA CURLIN+1
    9: 1DCB BDCB  A6 39         	LDX CURLIN
   10: 1DCD BDCD  85 62         LINPRT	STA FACHO
   11: 1DCF BDCF  86 63         	STX FACHO+1
   12: 1DD1 BDD1  A2 90         	LDX #$90
   13: 1DD3 BDD3  38            	SEC
   14: 1DD4 BDD4  20 49 BC      	JSR FLOATC
   15: 1DD7 BDD7  20 DF BD      	JSR FOUTC
   16: 1DDA BDDA  4C 1E AB      STROU2	JMP STROUT
   17: 1DDD BDDD  A0 01         FOUT	LDY #1
   18: 1DDF BDDF  A9 20         FOUTC	LDA #' '
   19: 1DE1 BDE1  24 66         	BIT FACSGN
   20: 1DE3 BDE3  10 02         	BPL FOUT1
   21: 1DE5 BDE5  A9 2D         	LDA #'-'
   22: 1DE7 BDE7  99 FF 00      FOUT1	STA FBUFFR-1,Y
   23: 1DEA BDEA  85 66         	STA FACSGN
   24: 1DEC BDEC  84 71         	STY FBUFPT
   25: 1DEE BDEE  C8            	INY
   26: 1DEF BDEF  A9 30         	LDA #'0'
   27: 1DF1 BDF1  A6 61         	LDX FACEXP
   28: 1DF3 BDF3  D0 03         	BNE @+5
   29: 1DF5 BDF5  4C 04 BF      	JMP FOUT19
   30: 1DF8 BDF8  A9 00         	LDA #0
   31: 1DFA BDFA  E0 80         	CPX #$80
   32: 1DFC BDFC  F0 02         	BEQ FOUT37
   33: 1DFE BDFE  B0 09         	BCS FOUT7
   34: 1E00 BE00  A9 BD         FOUT37	LDA #<NMIL
   35: 1E02 BE02  A0 BD         	LDY #>NMIL
   36: 1E04 BE04  20 28 BA      	JSR FMULT
   37: 1E07 BE07  A9 F7         	LDA #250-ADDPR2-ADDPRC
   38: 1E09 BE09  85 5D         FOUT7	STA DECCNT
   39: 1E0B BE0B  A9 B8         FOUT4	LDA #<N9999
   40: 1E0D BE0D  A0 BD         	LDY #>N9999
   41: 1E0F BE0F  20 5B BC      	JSR FCOMP
   42: 1E12 BE12  F0 1E         	BEQ BIGGES
   43: 1E14 BE14  10 12         	BPL FOUT9
   44: 1E16 BE16  A9 B3         FOUT3	LDA #<N0999
   45: 1E18 BE18  A0 BD         	LDY #>N0999
   46: 1E1A BE1A  20 5B BC      	JSR FCOMP
   47: 1E1D BE1D  F0 02         	BEQ FOUT38
   48: 1E1F BE1F  10 0E         	BPL FOUT5
   49: 1E21 BE21  20 E2 BA      FOUT38	JSR MUL10
   50: 1E24 BE24  C6 5D         	DEC DECCNT
   51: 1E26 BE26  D0 EE         	BNE FOUT3
   52: 1E28 BE28  20 FE BA      FOUT9	JSR DIV10
   53: 1E2B BE2B  E6 5D         	INC DECCNT
   54: 1E2D BE2D  D0 DC         	BNE FOUT4
   55: 1E2F BE2F  20 49 B8      FOUT5	JSR FADDH
   56: 1E32 BE32  20 9B BC      BIGGES	JSR QINT
   57: 1E35 BE35  A2 01         	LDX #1
   58: 1E37 BE37  A5 5D         	LDA DECCNT
   59: 1E39 BE39  18            	CLC
   60: 1E3A BE3A  69 0A         	ADC #ADDPR2+ADDPRC+7
   61: 1E3C BE3C  30 09         	BMI FOUTPI
   62: 1E3E BE3E  C9 0B         	CMP #ADDPR2+ADDPRC+8
   63: 1E40 BE40  B0 06         	BCS FOUT6
   64: 1E42 BE42  69 FF         	ADC #$FF
   65: 1E44 BE44  AA            	TAX
   66: 1E45 BE45  A9 02         	LDA #2
   67: 1E47 BE47  38            FOUTPI	SEC
   68: 1E48 BE48  E9 02         FOUT6	SBC #2
   69: 1E4A BE4A  85 5E         	STA TENEXP
   70: 1E4C BE4C  86 5D         	STX DECCNT
   71: 1E4E BE4E  8A            	TXA
   72: 1E4F BE4F  F0 02         	BEQ FOUT39
   73: 1E51 BE51  10 13         	BPL FOUT8
   74: 1E53 BE53  A4 71         FOUT39	LDY FBUFPT
   75: 1E55 BE55  A9 2E         	LDA #'.'
   76: 1E57 BE57  C8            	INY
   77: 1E58 BE58  99 FF 00      	STA FBUFFR-1,Y
   78: 1E5B BE5B  8A            	TXA
   79: 1E5C BE5C  F0 06         	BEQ FOUT16
   80: 1E5E BE5E  A9 30         	LDA #'0'
   81: 1E60 BE60  C8            	INY
   82: 1E61 BE61  99 FF 00      	STA FBUFFR-1,Y
   83: 1E64 BE64  84 71         FOUT16	STY FBUFPT
   84: 1E66 BE66  A0 00         FOUT8	LDY #0
   85: 1E68 BE68  A2 80         FOUTIM	LDX #$80
   86: 1E6A BE6A  A5 65         FOUT2	LDA FACLO
   87: 1E6C BE6C  18            	CLC
   88: 1E6D BE6D  79 19 BF      	ADC FOUTBL+2+ADDPRC,Y
   89: 1E70 BE70  85 65         	STA FACLO
   90: 1E72 BE72  A5 64         	LDA FACMO
   91: 1E74 BE74  79 18 BF      	ADC FOUTBL+1+ADDPRC,Y
   92: 1E77 BE77  85 64         	STA FACMO
   93: 1E79 BE79  A5 63         	LDA FACMOH
   94: 1E7B BE7B  79 17 BF      	ADC FOUTBL+1,Y
   95: 1E7E BE7E  85 63         	STA FACMOH
   96: 1E80 BE80  A5 62         	LDA FACHO
   97: 1E82 BE82  79 16 BF      	ADC FOUTBL,Y
   98: 1E85 BE85  85 62         	STA FACHO
   99: 1E87 BE87  E8            	INX
  100: 1E88 BE88  B0 04         	BCS FOUT41
  101: 1E8A BE8A  10 DE         	BPL FOUT2
  102: 1E8C BE8C  30 02         	BMI FOUT40
  103: 1E8E BE8E  30 DA         FOUT41	BMI FOUT2
  104: 1E90 BE90  8A            FOUT40	TXA
  105: 1E91 BE91  90 04         	BCC FOUTYP
  106: 1E93 BE93  49 FF         	EOR #$FF
  107: 1E95 BE95  69 0A         	ADC #10
  108: 1E97 BE97  69 2F         FOUTYP	ADC #$2F
  109: 1E99 BE99  C8            	INY
  110: 1E9A BE9A  C8            	INY
  111: 1E9B BE9B  C8            	INY
  112: 1E9C BE9C  C8            	INY
  113: 1E9D BE9D  84 47         	STY FDECPT
  114: 1E9F BE9F  A4 71         	LDY FBUFPT
  115: 1EA1 BEA1  C8            	INY
  116: 1EA2 BEA2  AA            	TAX
  117: 1EA3 BEA3  29 7F         	AND #$7F
  118: 1EA5 BEA5  99 FF 00      	STA FBUFFR-1,Y
  119: 1EA8 BEA8  C6 5D         	DEC DECCNT
  120: 1EAA BEAA  D0 06         	BNE STXBUF
  121: 1EAC BEAC  A9 2E         	LDA #'.'
  122: 1EAE BEAE  C8            	INY
  123: 1EAF BEAF  99 FF 00      	STA FBUFFR-1,Y
  124: 1EB2 BEB2  84 71         STXBUF	STY FBUFPT
  125: 1EB4 BEB4  A4 47         	LDY FDECPT
  126: 1EB6 BEB6  8A            	TXA
  127: 1EB7 BEB7  49 FF         	EOR #$FF
  128: 1EB9 BEB9  29 80         	AND #$80
  129: 1EBB BEBB  AA            	TAX
  130: 1EBC BEBC  C0 24         	CPY #FDCEND-FOUTBL
  131: 1EBE BEBE  F0 04         	BEQ FOULDY
  132: 1EC0 BEC0  C0 3C         	CPY #TIMEND-FOUTBL
  133: 1EC2 BEC2  D0 A6         	BNE FOUT2
  134: 1EC4 BEC4  A4 71         FOULDY	LDY FBUFPT
  135: 1EC6 BEC6  B9 FF 00      FOUT11	LDA FBUFFR-1,Y
  136: 1EC9 BEC9  88            	DEY
  137: 1ECA BECA  C9 30         	CMP #'0'
  138: 1ECC BECC  F0 F8         	BEQ FOUT11
  139: 1ECE BECE  C9 2E         	CMP #'.'
  140: 1ED0 BED0  F0 01         	BEQ FOUT12
  141: 1ED2 BED2  C8            	INY
  142: 1ED3 BED3  A9 2B         FOUT12	LDA #'+'
  143: 1ED5 BED5  A6 5E         	LDX TENEXP
  144: 1ED7 BED7  F0 2E         	BEQ FOUT17
  145: 1ED9 BED9  10 08         	BPL FOUT14
  146: 1EDB BEDB  A9 00         	LDA #0
  147: 1EDD BEDD  38            	SEC
  148: 1EDE BEDE  E5 5E         	SBC TENEXP
  149: 1EE0 BEE0  AA            	TAX
  150:                          
 FILE: basic.a65
 FILE: code23.a65
    1:                          
    2: 1EE1 BEE1  A9 2D         	LDA #'-'
    3: 1EE3 BEE3  99 01 01      FOUT14	STA FBUFFR+1,Y
    4: 1EE6 BEE6  A9 45         	LDA #'E'
    5: 1EE8 BEE8  99 00 01      	STA FBUFFR,Y
    6: 1EEB BEEB  8A            	TXA
    7: 1EEC BEEC  A2 2F         	LDX #$2F
    8: 1EEE BEEE  38            	SEC
    9: 1EEF BEEF  E8            FOUT15	INX
   10: 1EF0 BEF0  E9 0A         	SBC #10
   11: 1EF2 BEF2  B0 FB         	BCS FOUT15
   12: 1EF4 BEF4  69 3A         	ADC #$3A
   13: 1EF6 BEF6  99 03 01      	STA FBUFFR+3,Y
   14: 1EF9 BEF9  8A            	TXA
   15: 1EFA BEFA  99 02 01      	STA FBUFFR+2,Y
   16: 1EFD BEFD  A9 00         	LDA #0
   17: 1EFF BEFF  99 04 01      	STA FBUFFR+4,Y
   18: 1F02 BF02  F0 08         	BEQ FOUT20
   19: 1F04 BF04  99 FF 00      FOUT19	STA FBUFFR-1,Y
   20: 1F07 BF07  A9 00         FOUT17	LDA #0
   21: 1F09 BF09  99 00 01      	STA FBUFFR,Y
   22: 1F0C BF0C  A9 00         FOUT20	LDA #<FBUFFR
   23: 1F0E BF0E  A0 01         	LDY #>FBUFFR
   24: 1F10 BF10  60            	RTS
   25: 1F11 BF11  80 00         FHALF	.BYTE $80,$00
   26: 1F13 BF13  00 00 00      ZERO	.BYTE $00,$00,$00
   27: 1F16 BF16  FA 0A 1F      FOUTBL	.BYTE $FA,$0A,$1F,$00,$00
   28: 1F1B BF1B  98 96 80      	.BYTE $98,$96,$80,$FF
   29: 1F1F BF1F  F0 BD C0      	.BYTE $F0,$BD,$C0,$00
   30: 1F23 BF23  01 86 A0      	.BYTE $01,$86,$A0,$FF
   31: 1F27 BF27  FF D8 F0      	.BYTE $FF,$D8,$F0,$00,$00
   32: 1F2C BF2C  03 E8 FF      	.BYTE $03,$E8,$FF,$FF
   33: 1F30 BF30  FF 9C 00      	.BYTE $FF,$9C,$00,$00,$00,$0A
   34: 1F36 BF36  FF FF FF      	.BYTE $FF,$FF,$FF,$FF
   35: 1F3A BF3A  FF DF 0A      FDCEND	.BYTE $FF,$DF,$0A,$80
   36: 1F3E BF3E  00 03 4B      	.BYTE $00,$03,$4B,$C0,$FF
   37: 1F43 BF43  FF 73 60      	.BYTE $FF,$73,$60,$00,$00
   38: 1F48 BF48  0E 10 FF      	.BYTE $0E,$10,$FF,$FF
   39: 1F4C BF4C  FD A8 00      	.BYTE $FD,$A8,$00,$00,$00,$3C
   40:                          TIMEND
   41:                          ;
   42: 1F52 BF52  00            CKSMA0	.BYTE $00        ;$A000 8K ROM CHECK SUM ADJ
   43: 1F53 BF53  AA AA AA ...  PATCHS	.fill 30,$AA     ; PATCH AREA
   44:                          ;
   45: 1F71 BF71  20 0C BC      SQR	JSR MOVAF
   46: 1F74 BF74  A9 11         	LDA #<FHALF
   47: 1F76 BF76  A0 BF         	LDY #>FHALF
   48: 1F78 BF78  20 A2 BB      	JSR MOVFM
   49: 1F7B BF7B  F0 70         FPWRT	BEQ EXP
   50: 1F7D BF7D  A5 69         	LDA ARGEXP
   51: 1F7F BF7F  D0 03         	BNE FPWRT1
   52: 1F81 BF81  4C F9 B8      	JMP ZEROF1
   53: 1F84 BF84  A2 4E         FPWRT1	LDX #<TEMPF3
   54: 1F86 BF86  A0 00         	LDY #>TEMPF3
   55: 1F88 BF88  20 D4 BB      	JSR MOVMF
   56: 1F8B BF8B  A5 6E         	LDA ARGSGN
   57: 1F8D BF8D  10 0F         	BPL FPWR1
   58: 1F8F BF8F  20 CC BC      	JSR INT
   59: 1F92 BF92  A9 4E         	LDA #<TEMPF3
   60: 1F94 BF94  A0 00         	LDY #>TEMPF3
   61: 1F96 BF96  20 5B BC      	JSR FCOMP
   62: 1F99 BF99  D0 03         	BNE FPWR1
   63: 1F9B BF9B  98            	TYA
   64: 1F9C BF9C  A4 07         	LDY INTEGR
   65: 1F9E BF9E  20 FE BB      FPWR1	JSR MOVFA1
   66: 1FA1 BFA1  98            	TYA
   67: 1FA2 BFA2  48            	PHA
   68: 1FA3 BFA3  20 EA B9      	JSR LOG
   69: 1FA6 BFA6  A9 4E         	LDA #<TEMPF3
   70: 1FA8 BFA8  A0 00         	LDY #>TEMPF3
   71: 1FAA BFAA  20 28 BA      	JSR FMULT
   72: 1FAD BFAD  20 ED BF      	JSR EXP
   73: 1FB0 BFB0  68            	PLA
   74: 1FB1 BFB1  4A            	LSR
   75: 1FB2 BFB2  90 0A         	BCC NEGRTS
   76: 1FB4 BFB4  A5 61         NEGOP	LDA FACEXP
   77: 1FB6 BFB6  F0 06         	BEQ NEGRTS
   78: 1FB8 BFB8  A5 66         	LDA FACSGN
   79: 1FBA BFBA  49 FF         	EOR #$FF
   80: 1FBC BFBC  85 66         	STA FACSGN
   81: 1FBE BFBE  60            NEGRTS	RTS
   82:                          
 FILE: basic.a65
 FILE: code24.a65
    1:                          
    2: 1FBF BFBF  81 38 AA      LOGEB2	.BYTE $81,$38,$AA,$3B,$29
    3: 1FC4 BFC4  07 71 34      EXPCON	.BYTE $07,$71,$34,$58,$3E
    4: 1FC9 BFC9  56 74 16      	.BYTE $56,$74,$16,$7E
    5: 1FCD BFCD  B3 1B 77      	.BYTE $B3,$1B,$77,$2F
    6: 1FD1 BFD1  EE E3 85      	.BYTE $EE,$E3,$85,$7A
    7: 1FD5 BFD5  1D 84 1C      	.BYTE $1D,$84,$1C,$2A
    8: 1FD9 BFD9  7C 63 59      	.BYTE $7C,$63,$59,$58
    9: 1FDD BFDD  0A 7E 75      	.BYTE $0A,$7E,$75,$FD
   10: 1FE1 BFE1  E7 C6 80      	.BYTE $E7,$C6,$80,$31
   11: 1FE5 BFE5  72 18 10      	.BYTE $72,$18,$10,$81
   12: 1FE9 BFE9  00 00 00      	.BYTE $00,$00,$00,$00
   13:                          ;
   14:                          ; START OF KERNAL ROM
   15:                          ;
   16: 1FED BFED  A9 BF         EXP	LDA #<LOGEB2
   17: 1FEF BFEF  A0 BF         	LDY #>LOGEB2
   18: 1FF1 BFF1  20 28 BA      	JSR FMULT
   19: 1FF4 BFF4  A5 70         	LDA FACOV
   20: 1FF6 BFF6  69 50         	ADC #$50
   21: 1FF8 BFF8  90 03         	BCC STOLDX
   22: 1FFA BFFA  20 23 BC      	JSR INCRND
   23: 1FFD BFFD  4C 00 E0      STOLDX	JMP STOLD       ;CROSS BOUNDRIES
   24:                          
 FILE: basic.a65
 FILE: code25.a65
    1:                          
    2:                          .if @ != $C000
    3-                          	.echo "code25.a65: PC MUST be $C000, is ", [$]@
    4:                          .endif
    5:                          
    6:                          	.org $E000         ;START OF VIC-40 KERNAL ROM
    7:                          
    8:                          ; CONTINUATION OF EXPONENT ROUTINE
    9:                          ;
   10: 2000 E000  85 56         STOLD	STA OLDOV
   11: 2002 E002  20 0F BC      	JSR MOVEF
   12: 2005 E005  A5 61         	LDA FACEXP
   13: 2007 E007  C9 88         	CMP #$88
   14: 2009 E009  90 03         	BCC EXP1
   15: 200B E00B  20 D4 BA      GOMLDV	JSR MLDVEX
   16: 200E E00E  20 CC BC      EXP1	JSR INT
   17: 2011 E011  A5 07         	LDA INTEGR
   18: 2013 E013  18            	CLC
   19: 2014 E014  69 81         	ADC #$81
   20: 2016 E016  F0 F3         	BEQ GOMLDV
   21: 2018 E018  38            	SEC
   22: 2019 E019  E9 01         	SBC #1
   23: 201B E01B  48            	PHA
   24: 201C E01C  A2 05         	LDX #4+ADDPRC
   25: 201E E01E  B5 69         SWAPLP	LDA ARGEXP,X
   26: 2020 E020  B4 61         	LDY FACEXP,X
   27: 2022 E022  95 61         	STA FACEXP,X
   28: 2024 E024  94 69         	STY ARGEXP,X
   29: 2026 E026  CA            	DEX
   30: 2027 E027  10 F5         	BPL SWAPLP
   31: 2029 E029  A5 56         	LDA OLDOV
   32: 202B E02B  85 70         	STA FACOV
   33: 202D E02D  20 53 B8      	JSR FSUBT
   34: 2030 E030  20 B4 BF      	JSR NEGOP
   35: 2033 E033  A9 C4         	LDA #<EXPCON
   36: 2035 E035  A0 BF         	LDY #>EXPCON
   37: 2037 E037  20 59 E0      	JSR POLY
   38: 203A E03A  A9 00         	LDA #0
   39: 203C E03C  85 6F         	STA ARISGN
   40: 203E E03E  68            	PLA
   41: 203F E03F  20 B9 BA      	JSR MLDEXP
   42: 2042 E042  60            	RTS
   43: 2043 E043  85 71         POLYX	STA POLYPT
   44: 2045 E045  84 72         	STY POLYPT+1
   45: 2047 E047  20 CA BB      	JSR MOV1F
   46: 204A E04A  A9 57         	LDA #TEMPF1
   47: 204C E04C  20 28 BA      	JSR FMULT
   48: 204F E04F  20 5D E0      	JSR POLY1
   49: 2052 E052  A9 57         	LDA #<TEMPF1
   50: 2054 E054  A0 00         	LDY #>TEMPF1
   51: 2056 E056  4C 28 BA      	JMP FMULT
   52: 2059 E059  85 71         POLY	STA POLYPT
   53: 205B E05B  84 72         	STY POLYPT+1
   54: 205D E05D  20 C7 BB      POLY1	JSR MOV2F
   55: 2060 E060  B1 71         	LDA (POLYPT),Y
   56: 2062 E062  85 67         	STA DEGREE
   57: 2064 E064  A4 71         	LDY POLYPT
   58: 2066 E066  C8            	INY
   59: 2067 E067  98            	TYA
   60: 2068 E068  D0 02         	BNE POLY3
   61: 206A E06A  E6 72         	INC POLYPT+1
   62: 206C E06C  85 71         POLY3	STA POLYPT
   63: 206E E06E  A4 72         	LDY POLYPT+1
   64: 2070 E070  20 28 BA      POLY2	JSR FMULT
   65: 2073 E073  A5 71         	LDA POLYPT
   66: 2075 E075  A4 72         	LDY POLYPT+1
   67: 2077 E077  18            	CLC
   68: 2078 E078  69 05         	ADC #4+ADDPRC
   69: 207A E07A  90 01         	BCC POLY4
   70: 207C E07C  C8            	INY
   71: 207D E07D  85 71         POLY4	STA POLYPT
   72: 207F E07F  84 72         	STY POLYPT+1
   73: 2081 E081  20 67 B8      	JSR FADD
   74: 2084 E084  A9 5C         	LDA #<TEMPF2
   75: 2086 E086  A0 00         	LDY #>TEMPF2
   76: 2088 E088  C6 67         	DEC DEGREE
   77: 208A E08A  D0 E4         	BNE POLY2
   78: 208C E08C  60            	RTS
   79: 208D E08D  98 35 44      RMULC	.BYTE $98,$35,$44,$7A,$00
   80: 2092 E092  68 28 B1      RADDC	.BYTE $68,$28,$B1,$46,$00
   81: 2097 E097  20 2B BC      RND	JSR SIGN
   82: 209A E09A  30 37         	BMI RND1
   83: 209C E09C  D0 20         	BNE QSETNR
   84: 209E E09E  20 F3 FF      	JSR RDBAS
   85: 20A1 E0A1  86 22         	STX INDEX1
   86: 20A3 E0A3  84 23         	STY INDEX1+1
   87: 20A5 E0A5  A0 04         	LDY #4
   88: 20A7 E0A7  B1 22         	LDA (INDEX1),Y
   89: 20A9 E0A9  85 62         	STA FACHO
   90: 20AB E0AB  C8            	INY
   91: 20AC E0AC  B1 22         	LDA (INDEX1),Y
   92: 20AE E0AE  85 64         	STA FACMO
   93: 20B0 E0B0  A0 08         	LDY #8
   94: 20B2 E0B2  B1 22         	LDA (INDEX1),Y
   95: 20B4 E0B4  85 63         	STA FACMOH
   96: 20B6 E0B6  C8            	INY
   97: 20B7 E0B7  B1 22         	LDA (INDEX1),Y
   98: 20B9 E0B9  85 65         	STA FACLO
   99: 20BB E0BB  4C E3 E0      	JMP STRNEX
  100: 20BE E0BE  A9 8B         QSETNR	LDA #<RNDX
  101: 20C0 E0C0  A0 00         	LDY #>RNDX
  102: 20C2 E0C2  20 A2 BB      	JSR MOVFM
  103: 20C5 E0C5  A9 8D         	LDA #<RMULC
  104: 20C7 E0C7  A0 E0         	LDY #>RMULC
  105: 20C9 E0C9  20 28 BA      	JSR FMULT
  106: 20CC E0CC  A9 92         	LDA #<RADDC
  107: 20CE E0CE  A0 E0         	LDY #>RADDC
  108: 20D0 E0D0  20 67 B8      	JSR FADD
  109: 20D3 E0D3  A6 65         RND1	LDX FACLO
  110: 20D5 E0D5  A5 62         	LDA FACHO
  111: 20D7 E0D7  85 65         	STA FACLO
  112: 20D9 E0D9  86 62         	STX FACHO
  113: 20DB E0DB  A6 63         	LDX FACMOH
  114: 20DD E0DD  A5 64         	LDA FACMO
  115: 20DF E0DF  85 63         	STA FACMOH
  116: 20E1 E0E1  86 64         	STX FACMO
  117: 20E3 E0E3  A9 00         STRNEX	LDA #0
  118: 20E5 E0E5  85 66         	STA FACSGN
  119: 20E7 E0E7  A5 61         	LDA FACEXP
  120: 20E9 E0E9  85 70         	STA FACOV
  121: 20EB E0EB  A9 80         	LDA #$80
  122: 20ED E0ED  85 61         	STA FACEXP
  123: 20EF E0EF  20 D7 B8      	JSR NORMAL
  124: 20F2 E0F2  A2 8B         	LDX #<RNDX
  125: 20F4 E0F4  A0 00         	LDY #>RNDX
  126: 20F6 E0F6  4C D4 BB      GMOVMF	JMP MOVMF
  127:                          
 FILE: basic.a65
 FILE: code26.a65
    1:                          
    2:                          ;MOST REFERENCES TO KERNAL ARE DEFINED HERE
    3:                          ;
    4: 20F9 E0F9  C9 F0         EREXIT	CMP #$F0        ;CHECK FOR SPECIAL CASE
    5: 20FB E0FB  D0 07         	BNE EREXIX
    6:                          ; TOP OF MEMORY HAS CHANGED
    7: 20FD E0FD  84 38         	STY MEMSIZ+1
    8: 20FF E0FF  86 37         	STX MEMSIZ
    9: 2101 E101  4C 63 A6      	JMP CLEART      ;ACT AS IF HE TYPED CLEAR
   10: 2104 E104  AA            EREXIX	TAX             ;SET TERMINATION FLAGS
   11: 2105 E105  D0 02         	BNE EREXIY
   12: 2107 E107  A2 1E         	LDX #ERBRK      ;BREAK ERROR
   13: 2109 E109  4C 37 A4      EREXIY	JMP ERROR       ;NORMAL ERROR
   14:                          
   15:                          CLSCHN	=$FFCC
   16:                          
   17: 210C E10C  20 D2 FF      OUTCH	JSR $FFD2
   18: 210F E10F  B0 E8         	BCS EREXIT
   19: 2111 E111  60            	RTS
   20:                          
   21: 2112 E112  20 CF FF      INCHR	JSR $FFCF
   22: 2115 E115  B0 E2         	BCS EREXIT
   23: 2117 E117  60            	RTS
   24:                          
   25:                          CCALL	=$FFE7
   26:                          
   27:                          SETTIM	=$FFDB
   28:                          RDTIM	=$FFDE
   29:                          
   30: 2118 E118  20 AD E4      COOUT	JSR PPACH       ; GO OUT TO SAVE .A FOR PRINT# PATCH
   31: 211B E11B  B0 DC         	BCS EREXIT
   32: 211D E11D  60            	RTS
   33:                          
   34: 211E E11E  20 C6 FF      COIN	JSR $FFC6
   35: 2121 E121  B0 D6         	BCS EREXIT
   36: 2123 E123  60            	RTS
   37:                          
   38:                          READST	=$FFB7
   39:                          
   40: 2124 E124  20 E4 FF      CGETL	JSR $FFE4
   41: 2127 E127  B0 D0         	BCS EREXIT
   42: 2129 E129  60            	RTS
   43:                          
   44:                          RDBAS	=$FFF3
   45:                          
   46:                          SETMSG	=$FF90
   47:                          
   48:                          PLOT	=$FFF0
   49:                          
   50: 212A E12A  20 8A AD      CSYS	JSR FRMNUM      ;EVAL FORMULA
   51: 212D E12D  20 F7 B7      	JSR GETADR      ;CONVERT TO INT. ADDR
   52: 2130 E130  A9 E1         	LDA #>CSYSRZ    ;PUSH RETURN ADDRESS
   53: 2132 E132  48            	PHA
   54: 2133 E133  A9 46         	LDA #<CSYSRZ
   55: 2135 E135  48            	PHA
   56: 2136 E136  AD 0F 03      	LDA SPREG       ;STATUS REG
   57: 2139 E139  48            	PHA
   58: 213A E13A  AD 0C 03      	LDA SAREG       ;LOAD 6502 REGS
   59: 213D E13D  AE 0D 03      	LDX SXREG
   60: 2140 E140  AC 0E 03      	LDY SYREG
   61: 2143 E143  28            	PLP             ;LOAD 6502 STATUS REG
   62: 2144 E144  6C 14 00      	JMP (LINNUM)    ;GO DO IT
   63:                          CSYSRZ	=@-1            ;RETURN TO HERE
   64: 2147 E147  08            	PHP             ;SAVE STATUS REG
   65: 2148 E148  8D 0C 03      	STA SAREG       ;SAVE 6502 REGS
   66: 214B E14B  8E 0D 03      	STX SXREG
   67: 214E E14E  8C 0E 03      	STY SYREG
   68: 2151 E151  68            	PLA             ;GET STATUS REG
   69: 2152 E152  8D 0F 03      	STA SPREG
   70: 2155 E155  60            	RTS             ;RETURN TO SYSTEM
   71:                          
   72: 2156 E156  20 D4 E1      CSAVE	JSR PLSV        ;PARSE PARMS
   73: 2159 E159  A6 2D         	LDX VARTAB      ;END SAVE ADDR
   74: 215B E15B  A4 2E         	LDY VARTAB+1
   75: 215D E15D  A9 2B         	LDA #<TXTTAB    ;INDIRECT WITH START ADDRESS
   76: 215F E15F  20 D8 FF      	JSR $FFD8       ;SAVE IT
   77: 2162 E162  B0 95         	BCS EREXIT
   78: 2164 E164  60            	RTS
   79:                          
   80: 2165 E165  A9 01         CVERF	LDA #1          ;VERIFY FLAG
   81: 2167 E167  2C            	.BYTE $2C        ;SKIP TWO BYTES
   82:                          
   83: 2168 E168  A9 00         CLOAD	LDA #0          ;LOAD FLAG
   84: 216A E16A  85 0A         	STA VERCK
   85: 216C E16C  20 D4 E1      	JSR PLSV        ;PARSE PARAMETERS
   86:                          ;
   87:                          CLD10	; JSR $FFE1 ;CHECK RUN/STOP
   88:                          ; CMP #$FF ;DONE YET?
   89:                          ; BNE CLD10 ;STILL BOUNCING
   90: 216F E16F  A5 0A         	LDA VERCK
   91: 2171 E171  A6 2B         	LDX TXTTAB      ;.X AND .Y HAVE ALT...
   92: 2173 E173  A4 2C         	LDY TXTTAB+1    ;...LOAD ADDRESS
   93: 2175 E175  20 D5 FF      	JSR $FFD5       ;LOAD IT
   94: 2178 E178  B0 57         	BCS JERXIT      ;PROBLEMS
   95:                          ;
   96: 217A E17A  A5 0A         	LDA VERCK
   97: 217C E17C  F0 17         	BEQ CLD50       ;WAS LOAD
   98:                          ;
   99:                          ;FINISH VERIFY
  100:                          ;
  101: 217E E17E  A2 1C         	LDX #ERVFY      ;ASSUME ERROR
  102: 2180 E180  20 B7 FF      	JSR $FFB7       ;READ STATUS
  103: 2183 E183  29 10         	AND #$10        ;CHECK ERROR
  104: 2185 E185  D0 17         	BNE CLD55       ;REPLACES BEQ *+5/JMP ERROR
  105:                          ;
  106:                          ;PRINT VERIFY 'OK' IF DIRECT
  107:                          ;
  108: 2187 E187  A5 7A         	LDA TXTPTR
  109: 2189 E189  C9 02         	CMP #BUFPAG
  110: 218B E18B  F0 07         	BEQ CLD20
  111: 218D E18D  A9 64         	LDA #<OKMSG
  112: 218F E18F  A0 A3         	LDY #>OKMSG
  113: 2191 E191  4C 1E AB      	JMP STROUT
  114:                          ;
  115: 2194 E194  60            CLD20	RTS
  116:                          
  117:                          ;
  118:                          ;FINISH LOAD
  119:                          ;
  120: 2195 E195  20 B7 FF      CLD50	JSR $FFB7       ;READ STATUS
  121: 2198 E198  29 BF         	AND #$FF-$40    ;CLEAR E.O.I.
  122: 219A E19A  F0 05         	BEQ CLD60       ;WAS O.K.
  123: 219C E19C  A2 1D         	LDX #ERLOAD
  124: 219E E19E  4C 37 A4      CLD55	JMP ERROR
  125:                          ;
  126: 21A1 E1A1  A5 7B         CLD60	LDA TXTPTR+1
  127: 21A3 E1A3  C9 02         	CMP #BUFPAG     ;DIRECT?
  128: 21A5 E1A5  D0 0E         	BNE CLD70       ;NO...
  129:                          ;
  130: 21A7 E1A7  86 2D         	STX VARTAB
  131: 21A9 E1A9  84 2E         	STY VARTAB+1    ;END LOAD ADDRESS
  132: 21AB E1AB  A9 76         	LDA #<REDDY
  133: 21AD E1AD  A0 A3         	LDY #>REDDY
  134: 21AF E1AF  20 1E AB      	JSR STROUT
  135: 21B2 E1B2  4C 2A A5      	JMP FINI
  136:                          ;
  137:                          ;PROGRAM LOAD
  138:                          ;
  139: 21B5 E1B5  20 8E A6      CLD70	JSR STXTPT
  140: 21B8 E1B8  20 33 A5      	JSR LNKPRG
  141: 21BB E1BB  4C 77 A6      	JMP FLOAD
  142:                          
  143: 21BE E1BE  20 19 E2      COPEN	JSR PAOC        ;PARSE STATEMENT
  144: 21C1 E1C1  20 C0 FF      	JSR $FFC0       ;OPEN IT
  145: 21C4 E1C4  B0 0B         	BCS JERXIT      ;BAD STUFF OR MEMSIZ CHANGE
  146: 21C6 E1C6  60            	RTS             ;A.O.K.
  147:                          
  148: 21C7 E1C7  20 19 E2      CCLOS	JSR PAOC        ;PARSE STATEMENT
  149: 21CA E1CA  A5 49         	LDA ANDMSK      ;GET LA
  150: 21CC E1CC  20 C3 FF      	JSR $FFC3       ;CLOSE IT
  151: 21CF E1CF  90 C3         	BCC CLD20       ;IT'S OKAY...NO MEMSIZE CHANGE
  152:                          ;
  153: 21D1 E1D1  4C F9 E0      JERXIT	JMP EREXIT
  154:                          
  155:                          ;
  156:                          ;PARSE LOAD AND SAVE COMMANDS
  157:                          ;
  158:                          PLSV
  159:                          ;DEFAULT FILE NAME
  160:                          ;
  161: 21D4 E1D4  A9 00         	LDA #0          ;LENGTH=0
  162: 21D6 E1D6  20 BD FF      	JSR $FFBD
  163:                          ;
  164:                          ;DEFAULT DEVICE #
  165:                          ;
  166: 21D9 E1D9  A2 01         	LDX #1          ;DEVICE #1
  167: 21DB E1DB  A0 00         	LDY #0          ;COMMAND 0
  168: 21DD E1DD  20 BA FF      	JSR $FFBA
  169:                          ;
  170: 21E0 E1E0  20 06 E2      	JSR PAOC20      ;BY-PASS JUNK
  171: 21E3 E1E3  20 57 E2      	JSR PAOC15      ;GET/SET FILE NAME
  172: 21E6 E1E6  20 06 E2      	JSR PAOC20      ;BY-PASS JUNK
  173: 21E9 E1E9  20 00 E2      	JSR PLSV7       ;GET ',FA'
  174: 21EC E1EC  A0 00         	LDY #0          ;COMMAND 0
  175: 21EE E1EE  86 49         	STX ANDMSK
  176: 21F0 E1F0  20 BA FF      	JSR $FFBA
  177: 21F3 E1F3  20 06 E2      	JSR PAOC20      ;BY-PASS JUNK
  178: 21F6 E1F6  20 00 E2      	JSR PLSV7       ;GET ',SA'
  179: 21F9 E1F9  8A            	TXA             ;NEW COMMAND
  180: 21FA E1FA  A8            	TAY
  181: 21FB E1FB  A6 49         	LDX ANDMSK      ;DEVICE #
  182: 21FD E1FD  4C BA FF      	JMP $FFBA
  183:                          
  184:                          ;LOOK FOR COMMA FOLLOWED BY BYTE
  185: 2200 E200  20 0E E2      PLSV7	JSR PAOC30
  186: 2203 E203  4C 9E B7      	JMP GETBYT
  187:                          
  188:                          ;SKIP RETURN IF NEXT CHAR IS END
  189:                          ;
  190: 2206 E206  20 79 00      PAOC20	JSR CHRGOT
  191: 2209 E209  D0 02         	BNE PAOCX
  192: 220B E20B  68            	PLA
  193: 220C E20C  68            	PLA
  194: 220D E20D  60            PAOCX	RTS
  195:                          
  196:                          ;CHECK FOR COMMA AND GOOD STUFF
  197:                          ;
  198: 220E E20E  20 FD AE      PAOC30	JSR CHKCOM      ;CHECK COMMA
  199: 2211 E211  20 79 00      PAOC32	JSR CHRGOT      ;GET CURRENT
  200: 2214 E214  D0 F7         	BNE PAOCX       ;IS O.K.
  201: 2216 E216  4C 08 AF      PAOC40	JMP SNERR       ;BAD.. OF LINE
  202:                          
  203:                          ;PARSE OPEN/CLOSE
  204:                          ;
  205: 2219 E219  A9 00         PAOC	LDA #0
  206: 221B E21B  20 BD FF      	JSR $FFBD       ;DEFAULT FILE NAME
  207:                          ;
  208: 221E E21E  20 11 E2      	JSR PAOC32      ;MUST GOT SOMETHING
  209: 2221 E221  20 9E B7      	JSR GETBYT      ;GET LA
  210: 2224 E224  86 49         	STX ANDMSK
  211: 2226 E226  8A            	TXA
  212: 2227 E227  A2 01         	LDX #1          ;DEFAULT DEVICE
  213: 2229 E229  A0 00         	LDY #0          ;DEFAULT COMMAND
  214: 222B E22B  20 BA FF      	JSR $FFBA       ;STORE IT
  215: 222E E22E  20 06 E2      	JSR PAOC20      ;SKIP JUNK
  216: 2231 E231  20 00 E2      	JSR PLSV7
  217: 2234 E234  86 4A         	STX EORMSK
  218: 2236 E236  A0 00         	LDY #0          ;DEFAULT COMMAND
  219: 2238 E238  A5 49         	LDA ANDMSK      ;GET LA
  220: 223A E23A  E0 03         	CPX #3
  221: 223C E23C  90 01         	BCC PAOC5
  222: 223E E23E  88            	DEY             ;DEFAULT IEEE TO $FF
  223: 223F E23F  20 BA FF      PAOC5	JSR $FFBA       ;STORE THEM
  224: 2242 E242  20 06 E2      	JSR PAOC20      ;SKIP JUNK
  225: 2245 E245  20 00 E2      	JSR PLSV7       ;GET SA
  226: 2248 E248  8A            	TXA
  227: 2249 E249  A8            	TAY
  228: 224A E24A  A6 4A         	LDX EORMSK
  229: 224C E24C  A5 49         	LDA ANDMSK
  230: 224E E24E  20 BA FF      	JSR $FFBA       ;SET UP REAL EVEYTHING
  231: 2251 E251  20 06 E2      PAOC7	JSR PAOC20
  232: 2254 E254  20 0E E2      	JSR PAOC30
  233: 2257 E257  20 9E AD      PAOC15	JSR FRMEVL
  234: 225A E25A  20 A3 B6      	JSR FRESTR      ;LENGTH IN .A
  235: 225D E25D  A6 22         	LDX INDEX1
  236: 225F E25F  A4 23         	LDY INDEX1+1
  237: 2261 E261  4C BD FF      	JMP $FFBD
  238:                          
  239:                          ; RSR 8/10/80 - CHANGE SYS COMMAND
  240:                          ; RSR 8/26/80 - ADD OPEN&CLOSE MEMSIZ DETECT
  241:                          ; RSR 10/7/80 - CHANGE LOAD (REMOVE RUN WAIT)
  242:                          ; RSR 4/10/82 - INLINE FIX PROGRAM LOAD
  243:                          ; RSR 7/02/82 - FIX PRINT# PROBLEM
 FILE: basic.a65
 FILE: trig.a65
    1:                          
    2: 2264 E264  A9 E0         COS	LDA #<PI2
    3: 2266 E266  A0 E2         	LDY #>PI2
    4: 2268 E268  20 67 B8      	JSR FADD
    5: 226B E26B  20 0C BC      SIN	JSR MOVAF
    6: 226E E26E  A9 E5         	LDA #<TWOPI
    7: 2270 E270  A0 E2         	LDY #>TWOPI
    8: 2272 E272  A6 6E         	LDX ARGSGN
    9: 2274 E274  20 07 BB      	JSR FDIVF
   10: 2277 E277  20 0C BC      	JSR MOVAF
   11: 227A E27A  20 CC BC      	JSR INT
   12: 227D E27D  A9 00         	LDA #0
   13: 227F E27F  85 6F         	STA ARISGN
   14: 2281 E281  20 53 B8      	JSR FSUBT
   15: 2284 E284  A9 EA         	LDA #<FR4
   16: 2286 E286  A0 E2         	LDY #>FR4
   17: 2288 E288  20 50 B8      	JSR FSUB
   18: 228B E28B  A5 66         	LDA FACSGN
   19: 228D E28D  48            	PHA
   20: 228E E28E  10 0D         	BPL SIN1
   21: 2290 E290  20 49 B8      	JSR FADDH
   22: 2293 E293  A5 66         	LDA FACSGN
   23: 2295 E295  30 09         	BMI SIN2
   24: 2297 E297  A5 12         	LDA TANSGN
   25: 2299 E299  49 FF         	EOR #$FF
   26: 229B E29B  85 12         	STA TANSGN
   27: 229D E29D  20 B4 BF      SIN1	JSR NEGOP
   28: 22A0 E2A0  A9 EA         SIN2	LDA #<FR4
   29: 22A2 E2A2  A0 E2         	LDY #>FR4
   30: 22A4 E2A4  20 67 B8      	JSR FADD
   31: 22A7 E2A7  68            	PLA
   32: 22A8 E2A8  10 03         	BPL SIN3
   33: 22AA E2AA  20 B4 BF      	JSR NEGOP
   34: 22AD E2AD  A9 EF         SIN3	LDA #<SINCON
   35: 22AF E2AF  A0 E2         	LDY #>SINCON
   36: 22B1 E2B1  4C 43 E0      	JMP POLYX
   37: 22B4 E2B4  20 CA BB      TAN	JSR MOV1F
   38: 22B7 E2B7  A9 00         	LDA #0
   39: 22B9 E2B9  85 12         	STA TANSGN
   40: 22BB E2BB  20 6B E2      	JSR SIN
   41: 22BE E2BE  A2 4E         	LDX #<TEMPF3
   42: 22C0 E2C0  A0 00         	LDY #>TEMPF3
   43: 22C2 E2C2  20 F6 E0      	JSR GMOVMF
   44: 22C5 E2C5  A9 57         	LDA #<TEMPF1
   45: 22C7 E2C7  A0 00         	LDY #>TEMPF1
   46: 22C9 E2C9  20 A2 BB      	JSR MOVFM
   47: 22CC E2CC  A9 00         	LDA #0
   48: 22CE E2CE  85 66         	STA FACSGN
   49: 22D0 E2D0  A5 12         	LDA TANSGN
   50: 22D2 E2D2  20 DC E2      	JSR COSC
   51: 22D5 E2D5  A9 4E         	LDA #<TEMPF3
   52: 22D7 E2D7  A0 00         	LDY #>TEMPF3
   53: 22D9 E2D9  4C 0F BB      	JMP FDIV
   54: 22DC E2DC  48            COSC	PHA
   55: 22DD E2DD  4C 9D E2      	JMP SIN1
   56: 22E0 E2E0  81 49 0F      PI2	.BYTE $81,$49,$0F,$DA,$A2
   57: 22E5 E2E5  83 49 0F      TWOPI	.BYTE $83,$49,$0F,$DA,$A2
   58: 22EA E2EA  7F 00 00      FR4	.BYTE $7F,$00,$00,$00,$00
   59: 22EF E2EF  05 84 E6      SINCON	.BYTE $05,$84,$E6,$1A,$2D
   60: 22F4 E2F4  1B 86 28      	.BYTE $1B,$86,$28,$07,$FB
   61: 22F9 E2F9  F8 87 99      	.BYTE $F8,$87,$99,$68,$89
   62: 22FE E2FE  01 87 23      	.BYTE $01,$87,$23,$35,$DF,$E1
   63: 2304 E304  86 A5 5D      	.BYTE $86,$A5,$5D,$E7,$28,$83
   64: 230A E30A  49 0F DA      	.BYTE $49,$0F,$DA,$A2
   65: 230E E30E  A5 66         ATN	LDA FACSGN
   66: 2310 E310  48            	PHA
   67: 2311 E311  10 03         	BPL ATN1
   68: 2313 E313  20 B4 BF      	JSR NEGOP
   69: 2316 E316  A5 61         ATN1	LDA FACEXP
   70: 2318 E318  48            	PHA
   71: 2319 E319  C9 81         	CMP #$81
   72: 231B E31B  90 07         	BCC ATN2
   73: 231D E31D  A9 BC         	LDA #<FONE
   74: 231F E31F  A0 B9         	LDY #>FONE
   75: 2321 E321  20 0F BB      	JSR FDIV
   76: 2324 E324  A9 3E         ATN2	LDA #<ATNCON
   77: 2326 E326  A0 E3         	LDY #>ATNCON
   78: 2328 E328  20 43 E0      	JSR POLYX
   79: 232B E32B  68            	PLA
   80: 232C E32C  C9 81         	CMP #$81
   81: 232E E32E  90 07         	BCC ATN3
   82: 2330 E330  A9 E0         	LDA #<PI2
   83: 2332 E332  A0 E2         	LDY #>PI2
   84: 2334 E334  20 50 B8      	JSR FSUB
   85: 2337 E337  68            ATN3	PLA
   86: 2338 E338  10 03         	BPL ATN4
   87: 233A E33A  4C B4 BF      	JMP NEGOP
   88: 233D E33D  60            ATN4	RTS
   89: 233E E33E  0B 76 B3      ATNCON	.BYTE $0B,$76,$B3,$83
   90: 2342 E342  BD D3 79      	.BYTE $BD,$D3,$79,$1E,$F4
   91: 2347 E347  A6 F5 7B      	.BYTE $A6,$F5,$7B,$83,$FC
   92: 234C E34C  B0 10         	.BYTE $B0,$10
   93: 234E E34E  7C 0C 1F      	.BYTE $7C,$0C,$1F,$67,$CA
   94: 2353 E353  7C DE 53      	.BYTE $7C,$DE,$53,$CB,$C1
   95: 2358 E358  7D 14 64      	.BYTE $7D,$14,$64,$70,$4C
   96: 235D E35D  7D B7 EA      	.BYTE $7D,$B7,$EA,$51,$7A
   97: 2362 E362  7D 63 30      	.BYTE $7D,$63,$30,$88,$7E
   98: 2367 E367  7E 92 44      	.BYTE $7E,$92,$44,$99,$3A
   99: 236C E36C  7E 4C CC      	.BYTE $7E,$4C,$CC,$91,$C7
  100: 2371 E371  7F AA AA      	.BYTE $7F,$AA,$AA,$AA,$13
  101: 2376 E376  81 00 00      	.BYTE $81,$00,$00,$00,$00
  102:                          
 FILE: basic.a65
 FILE: init.a65
    1:                          
    2: 237B E37B  20 CC FF      PANIC	JSR CLSCHN      ;WARM START BASIC...
    3: 237E E37E  A9 00         	LDA #0          ;CLEAR CHANNELS
    4: 2380 E380  85 13         	STA CHANNL
    5: 2382 E382  20 7A A6      	JSR STKINI      ;RESTORE STACK
    6: 2385 E385  58            	CLI             ;ENABLE IRQ'S
    7:                          
    8: 2386 E386  A2 80         READY	LDX #$80
    9: 2388 E388  6C 00 03      	JMP (IERROR)
   10: 238B E38B  8A            NERROR	TXA             ;GET  HIGH BIT
   11: 238C E38C  30 03         	BMI NREADY
   12: 238E E38E  4C 3A A4      	JMP NERROX
   13: 2391 E391  4C 74 A4      NREADY	JMP READYX
   14:                          
   15: 2394 E394  20 53 E4      INIT	JSR INITV       ;GO INIT VECTORS
   16: 2397 E397  20 BF E3      	JSR INITCZ      ;GO INIT CHARGET & Z-PAGE
   17: 239A E39A  20 22 E4      	JSR INITMS      ;GO PRINT INITILIZATION MESSAGES
   18: 239D E39D  A2 FB         	LDX #STKEND-256 ;SET UP END OF STACK
   19: 239F E39F  9A            	TXS
   20: 23A0 E3A0  D0 E4         	BNE READY       ;JMP...READY
   21:                          
   22: 23A2 E3A2  E6 7A         INITAT	INC CHRGET+7
   23: 23A4 E3A4  D0 02         	BNE CHDGOT
   24: 23A6 E3A6  E6 7B         	INC CHRGET+8
   25: 23A8 E3A8  AD 60 EA      CHDGOT	LDA 60000
   26: 23AB E3AB  C9 3A         	CMP #':'
   27: 23AD E3AD  B0 0A         	BCS CHDRTS
   28: 23AF E3AF  C9 20         	CMP #' '
   29: 23B1 E3B1  F0 EF         	BEQ INITAT
   30: 23B3 E3B3  38            	SEC
   31: 23B4 E3B4  E9 30         	SBC #'0'
   32: 23B6 E3B6  38            	SEC
   33: 23B7 E3B7  E9 D0         	SBC #$D0
   34: 23B9 E3B9  60            CHDRTS	RTS
   35: 23BA E3BA  80 4F C7      	.BYTE 128,79,199,82,88
   36:                          
   37: 23BF E3BF  A9 4C         INITCZ	LDA #76
   38: 23C1 E3C1  85 54         	STA JMPER
   39: 23C3 E3C3  8D 10 03      	STA USRPOK
   40: 23C6 E3C6  A9 48         	LDA #<FCERR
   41: 23C8 E3C8  A0 B2         	LDY #>FCERR
   42: 23CA E3CA  8D 11 03      	STA USRPOK+1
   43: 23CD E3CD  8C 12 03      	STY USRPOK+2
   44: 23D0 E3D0  A9 91         	LDA #<GIVAYF
   45: 23D2 E3D2  A0 B3         	LDY #>GIVAYF
   46: 23D4 E3D4  85 05         	STA ADRAY2
   47: 23D6 E3D6  84 06         	STY ADRAY2+1
   48: 23D8 E3D8  A9 AA         	LDA #<FLPINT
   49: 23DA E3DA  A0 B1         	LDY #>FLPINT
   50: 23DC E3DC  85 03         	STA ADRAY1
   51: 23DE E3DE  84 04         	STY ADRAY1+1
   52: 23E0 E3E0  A2 1C         	LDX #INITCZ-INITAT-1
   53: 23E2 E3E2  BD A2 E3      MOVCHG	LDA INITAT,X
   54: 23E5 E3E5  95 73         	STA CHRGET,X
   55: 23E7 E3E7  CA            	DEX
   56: 23E8 E3E8  10 F8         	BPL MOVCHG
   57: 23EA E3EA  A9 03         	LDA #STRSIZ
   58: 23EC E3EC  85 53         	STA FOUR6
   59: 23EE E3EE  A9 00         	LDA #0
   60: 23F0 E3F0  85 68         	STA BITS
   61: 23F2 E3F2  85 13         	STA CHANNL
   62: 23F4 E3F4  85 18         	STA LASTPT+1
   63: 23F6 E3F6  A2 01         	LDX #1
   64: 23F8 E3F8  8E FD 01      	STX BUF-3
   65: 23FB E3FB  8E FC 01      	STX BUF-4
   66: 23FE E3FE  A2 19         	LDX #TEMPST
   67: 2400 E400  86 16         	STX TEMPPT
   68: 2402 E402  38            	SEC             ;READ BOTTOM OF MEMORY
   69: 2403 E403  20 9C FF      	JSR $FF9C
   70: 2406 E406  86 2B         	STX TXTTAB      ;NOW TXTAB HAS IT
   71: 2408 E408  84 2C         	STY TXTTAB+1
   72: 240A E40A  38            	SEC
   73: 240B E40B  20 99 FF      	JSR $FF99       ;READ TOP OF MEMORY
   74: 240E E40E  86 37         USEDEF	STX MEMSIZ
   75: 2410 E410  84 38         	STY MEMSIZ+1
   76: 2412 E412  86 33         	STX FRETOP
   77: 2414 E414  84 34         	STY FRETOP+1
   78: 2416 E416  A0 00         	LDY #0
   79: 2418 E418  98            	TYA
   80: 2419 E419  91 2B         	STA (TXTTAB),Y
   81: 241B E41B  E6 2B         	INC TXTTAB
   82: 241D E41D  D0 02         	BNE INIT20
   83: 241F E41F  E6 2C         	INC TXTTAB+1
   84: 2421 E421  60            INIT20	RTS
   85:                          
   86: 2422 E422  A5 2B         INITMS	LDA TXTTAB
   87: 2424 E424  A4 2C         	LDY TXTTAB+1
   88: 2426 E426  20 08 A4      	JSR REASON
   89: 2429 E429  A9 73         	LDA #<FREMES
   90: 242B E42B  A0 E4         	LDY #>FREMES
   91: 242D E42D  20 1E AB      	JSR STROUT
   92: 2430 E430  A5 37         	LDA MEMSIZ
   93: 2432 E432  38            	SEC
   94: 2433 E433  E5 2B         	SBC TXTTAB
   95: 2435 E435  AA            	TAX
   96: 2436 E436  A5 38         	LDA MEMSIZ+1
   97: 2438 E438  E5 2C         	SBC TXTTAB+1
   98: 243A E43A  20 CD BD      	JSR LINPRT
   99: 243D E43D  A9 60         	LDA #<WORDS
  100: 243F E43F  A0 E4         	LDY #>WORDS
  101: 2441 E441  20 1E AB      	JSR STROUT
  102: 2444 E444  4C 44 A6      	JMP SCRTCH
  103:                          
  104: 2447 E447  8B E3 83 ...  BVTRS	.WORD NERROR,NMAIN,NCRNCH,NQPLOP,NGONE,NEVAL
  105:                          ;
  106: 2453 E453  A2 0B         INITV	LDX #INITV-BVTRS-1 ;INIT VECTORS
  107: 2455 E455  BD 47 E4      INITV1	LDA BVTRS,X
  108: 2458 E458  9D 00 03      	STA IERROR,X
  109: 245B E45B  CA            	DEX
  110: 245C E45C  10 F7         	BPL INITV1
  111: 245E E45E  60            	RTS
  112: 245F E45F  00            CHKE0	.BYTE $00
  113:                          
  114: 2460 E460  20 42 41 ...  WORDS	.BYTE " BASIC BYTES FREE",13,0
  115: 2473 E473  93 0D 20 ...  FREMES	.BYTE 147,13,"    **** COMMODORE 64 BASIC V2 ****"
  116: 2498 E498  0D 0D 20 ...  	.BYTE 13,13," 64K RAM SYSTEM  ",0
  117: 24AC E4AC  00            	.BYTE 0
  118:                          ; PPACH - PRINT# PATCH TO COOUT (SAVE .A)
  119:                          ;
  120: 24AD E4AD  48            PPACH	PHA
  121: 24AE E4AE  20 C9 FF      	JSR $FFC9
  122: 24B1 E4B1  AA            	TAX             ;SAVE ERROR CODE
  123: 24B2 E4B2  68            	PLA
  124: 24B3 E4B3  90 01         	BCC PPACH0      ;NO ERROR....
  125: 24B5 E4B5  8A            	TXA             ;ERROR CODE
  126: 24B6 E4B6  60            PPACH0	RTS
  127:                          
  128:                          ;RSR 8/10/80 UPDATE PANIC :REM COULD USE IN ERROR ROUTINE
  129:                          ;RSR 2/08/82 MODIFY FOR VIC-40 RELEASE
  130:                          ;RSR 4/15/82 ADD ADVERTISING SIGN-ON
  131:                          ;RSR 7/02/82 ADD PRINT# PATCH
 FILE: basic.a65
   33:                          


S Y M B O L S   B Y   N A M E

NAME                              HEX    DEC  SYM TYPE  WHERE
ABS. . . . . . . . . . . . . . . BC58  48216  LBL WORD  code20.a65:108
ADDEND . . . . . . . . . . . . .   28     40  LBL BYTE  declare.a65:42
ADDFRS . . . . . . . . . . . . . A3B0  41904  LBL WORD  token2.a65:173
ADDIND . . . . . . . . . . . . . B320  45856  LBL WORD  code13.a65:54
ADDON. . . . . . . . . . . . . . A8FB  43259  LBL WORD  code5.a65:29
ADDPR2 . . . . . . . . . . . . .   02      2  VAR BYTE  code18.a65:9
ADDPR4 . . . . . . . . . . . . .   04      4  VAR BYTE  code18.a65:10
ADDPR8 . . . . . . . . . . . . .   08      8  VAR BYTE  code18.a65:11
ADDPRC . . . . . . . . . . . . .   01      1  VAR BYTE  declare.a65:2
ADRAY1 . . . . . . . . . . . . .   03      3  LBL BYTE  declare.a65:14
ADRAY2 . . . . . . . . . . . . .   05      5  LBL BYTE  declare.a65:15
AFFRTS . . . . . . . . . . . . . A637  42551  LBL WORD  code2.a65:102
ANDMSK . . . . . . . . . . . . .   49     73  LBL BYTE  declare.a65:63
ANDOP. . . . . . . . . . . . . . AFE9  45033  LBL WORD  code10.a65:118
ARGEXP . . . . . . . . . . . . .   69    105  LBL BYTE  declare.a65:104
ARGHO. . . . . . . . . . . . . .   6A    106  LBL BYTE  declare.a65:105
ARGLO. . . . . . . . . . . . . .   6D    109  LBL BYTE  declare.a65:108
ARGMO. . . . . . . . . . . . . .   6C    108  LBL BYTE  declare.a65:107
ARGMOH . . . . . . . . . . . . .   6B    107  LBL BYTE  declare.a65:106
ARGSGN . . . . . . . . . . . . .   6E    110  LBL BYTE  declare.a65:109
ARISGN . . . . . . . . . . . . .   6F    111  LBL BYTE  declare.a65:111
ARYGET . . . . . . . . . . . . . B5AE  46510  LBL WORD  code15.a65:50
ARYPNT . . . . . . . . . . . . .   58     88  LBL BYTE  declare.a65:79
ARYSTR . . . . . . . . . . . . . B5B0  46512  LBL WORD  code15.a65:51
ARYTAB . . . . . . . . . . . . .   2F     47  LBL BYTE  declare.a65:48
ARYVA2 . . . . . . . . . . . . . B56E  46446  LBL WORD  code15.a65:14
ARYVA3 . . . . . . . . . . . . . B572  46450  LBL WORD  code15.a65:16
ARYVAR . . . . . . . . . . . . . B566  46438  LBL WORD  code15.a65:10
ARYVGO . . . . . . . . . . . . . B57D  46461  LBL WORD  code15.a65:21
ASC. . . . . . . . . . . . . . . B78B  46987  LBL WORD  code16.a65:156
ASPAC. . . . . . . . . . . . . . AB0E  43790  LBL WORD  code6.a65:142
ATN. . . . . . . . . . . . . . . E30E  58126  LBL WORD  trig.a65:65
ATN1 . . . . . . . . . . . . . . E316  58134  LBL WORD  trig.a65:69
ATN2 . . . . . . . . . . . . . . E324  58148  LBL WORD  trig.a65:76
ATN3 . . . . . . . . . . . . . . E337  58167  LBL WORD  trig.a65:85
ATN4 . . . . . . . . . . . . . . E33D  58173  LBL WORD  trig.a65:88
ATNCON . . . . . . . . . . . . . E33E  58174  LBL WORD  trig.a65:89
AYINT. . . . . . . . . . . . . . B1BF  45503  LBL WORD  code12.a65:12
BIGGES . . . . . . . . . . . . . BE32  48690  LBL WORD  code22.a65:56
BITS . . . . . . . . . . . . . .   68    104  LBL BYTE  declare.a65:103
BLANK0 . . . . . . . . . . . . .   00      0  LBL BYTE  declare.a65:13
BLT1 . . . . . . . . . . . . . . A3DC  41948  LBL WORD  token2.a65:200
BLTLP. . . . . . . . . . . . . . A3E8  41960  LBL WORD  token2.a65:206
BLTU . . . . . . . . . . . . . . A3B8  41912  LBL WORD  token2.a65:179
BLTUC. . . . . . . . . . . . . . A3BF  41919  LBL WORD  token2.a65:182
BRKTXT . . . . . . . . . . . . . A381  41857  LBL WORD  token2.a65:150
BSERR. . . . . . . . . . . . . . B245  45637  LBL WORD  code12.a65:85
BSERR7 . . . . . . . . . . . . . B308  45832  LBL WORD  code13.a65:41
BUF. . . . . . . . . . . . . . . 0200    512  VAR WORD  declare.a65:7
BUFFUL . . . . . . . . . . . . . ABEA  44010  LBL WORD  code7.a65:99
BUFLEN . . . . . . . . . . . . .   59     89  VAR BYTE  declare.a65:5
BUFOFS . . . . . . . . . . . . . 0200    512  VAR WORD  code2.a65:2
BUFPAG . . . . . . . . . . . . .   02      2  VAR BYTE  declare.a65:6
BUFPTR . . . . . . . . . . . . .   71    113  LBL BYTE  declare.a65:113
BVTRS. . . . . . . . . . . . . . E447  58439  LBL WORD  init.a65:104
CAT. . . . . . . . . . . . . . . B63D  46653  LBL WORD  code15.a65:126
CCALL. . . . . . . . . . . . . . FFE7  65511  VAR WORD  code26.a65:25
CCLOS. . . . . . . . . . . . . . E1C7  57799  LBL WORD  code26.a65:148
CGETL. . . . . . . . . . . . . . E124  57636  LBL WORD  code26.a65:40
CHANNL . . . . . . . . . . . . .   13     19  LBL BYTE  declare.a65:31
CHARAC . . . . . . . . . . . . .   07      7  LBL BYTE  declare.a65:17
CHDGOT . . . . . . . . . . . . . E3A8  58280  LBL WORD  init.a65:25
CHDRTS . . . . . . . . . . . . . E3B9  58297  LBL WORD  init.a65:34
CHEAD. . . . . . . . . . . . . . A53C  42300  LBL WORD  code1.a65:132
CHKCLS . . . . . . . . . . . . . AEF7  44791  LBL WORD  code9.a65:186
CHKCOM . . . . . . . . . . . . . AEFD  44797  LBL WORD  code9.a65:190
CHKE0. . . . . . . . . . . . . . E45F  58463  LBL WORD  init.a65:112
CHKERR . . . . . . . . . . . . . AD99  44441  LBL WORD  code9.a65:6
CHKNUM . . . . . . . . . . . . . AD8D  44429  LBL WORD  code8.a65:142
CHKOK. . . . . . . . . . . . . . AD96  44438  LBL WORD  code9.a65:4
CHKOPN . . . . . . . . . . . . . AEFA  44794  LBL WORD  code9.a65:188
CHKSTR . . . . . . . . . . . . . AD8F  44431  LBL WORD  code8.a65:144
CHKVAL . . . . . . . . . . . . . AD90  44432  LBL WORD  code8.a65:145
CHRD . . . . . . . . . . . . . . B6EC  46828  LBL WORD  code16.a65:67
CHRGET . . . . . . . . . . . . .   73    115  LBL BYTE  declare.a65:118
CHRGOT . . . . . . . . . . . . .   79    121  LBL BYTE  declare.a65:119
CHRRTS . . . . . . . . . . . . .   8A    138  LBL BYTE  declare.a65:122
CKSMA0 . . . . . . . . . . . . . BF52  48978  LBL WORD  code23.a65:42
CLD10. . . . . . . . . . . . . . E16F  57711  LBL WORD  code26.a65:87
CLD20. . . . . . . . . . . . . . E194  57748  LBL WORD  code26.a65:115
CLD50. . . . . . . . . . . . . . E195  57749  LBL WORD  code26.a65:120
CLD55. . . . . . . . . . . . . . E19E  57758  LBL WORD  code26.a65:124
CLD60. . . . . . . . . . . . . . E1A1  57761  LBL WORD  code26.a65:126
CLD70. . . . . . . . . . . . . . E1B5  57781  LBL WORD  code26.a65:139
CLEAR. . . . . . . . . . . . . . A65E  42590  LBL WORD  code2.a65:125
CLEARC . . . . . . . . . . . . . A660  42592  LBL WORD  code2.a65:126
CLEART . . . . . . . . . . . . . A663  42595  LBL WORD  code2.a65:127
CLMWID . . . . . . . . . . . . .   0A     10  VAR BYTE  declare.a65:9
CLOAD. . . . . . . . . . . . . . E168  57704  LBL WORD  code26.a65:83
CLRFAC . . . . . . . . . . . . . BCE9  48361  LBL WORD  code21.a65:42
CLSCHN . . . . . . . . . . . . . FFCC  65484  VAR WORD  code26.a65:15
CMD. . . . . . . . . . . . . . . AA86  43654  LBL WORD  code6.a65:74
CMPFOR . . . . . . . . . . . . . A3A4  41892  LBL WORD  token2.a65:168
CMPSPC . . . . . . . . . . . . . A58E  42382  LBL WORD  code2.a65:13
COIN . . . . . . . . . . . . . . E11E  57630  LBL WORD  code26.a65:34
COLIS. . . . . . . . . . . . . . A5DC  42460  LBL WORD  code2.a65:54
COMBYT . . . . . . . . . . . . . B7F1  47089  LBL WORD  code17.a65:42
COMPRT . . . . . . . . . . . . . AAE8  43752  LBL WORD  code6.a65:120
CONINT . . . . . . . . . . . . . B7A1  47009  LBL WORD  code17.a65:3
CONT . . . . . . . . . . . . . . A857  43095  LBL WORD  code4.a65:86
CONTRT . . . . . . . . . . . . . A870  43120  LBL WORD  code4.a65:98
CONUPK . . . . . . . . . . . . . BA8C  47756  LBL WORD  code19.a65:78
COOUT. . . . . . . . . . . . . . E118  57624  LBL WORD  code26.a65:30
COPEN. . . . . . . . . . . . . . E1BE  57790  LBL WORD  code26.a65:143
COPFLT . . . . . . . . . . . . . A9D6  43478  LBL WORD  code5.a65:138
COPSTR . . . . . . . . . . . . . A9D9  43481  LBL WORD  code5.a65:139
COPY . . . . . . . . . . . . . . AA52  43602  LBL WORD  code6.a65:49
COPYC. . . . . . . . . . . . . . AA68  43624  LBL WORD  code6.a65:59
COS. . . . . . . . . . . . . . . E264  57956  LBL WORD  trig.a65:2
COSC . . . . . . . . . . . . . . E2DC  58076  LBL WORD  trig.a65:54
COUNT. . . . . . . . . . . . . .   0B     11  LBL BYTE  declare.a65:21
CRDO . . . . . . . . . . . . . . AAD7  43735  LBL WORD  code6.a65:111
CRDONE . . . . . . . . . . . . . A609  42505  LBL WORD  code2.a65:76
CRFIN. . . . . . . . . . . . . . AAE5  43749  LBL WORD  code6.a65:118
CRTSKP . . . . . . . . . . . . . AB42  43842  LBL WORD  code7.a65:23
CRUNCH . . . . . . . . . . . . . A579  42361  LBL WORD  code2.a65:3
CSAVE. . . . . . . . . . . . . . E156  57686  LBL WORD  code26.a65:72
CSYS . . . . . . . . . . . . . . E12A  57642  LBL WORD  code26.a65:50
CSYSRZ . . . . . . . . . . . . . E146  57670  VAR WORD  code26.a65:63
CURLIN . . . . . . . . . . . . .   39     57  LBL BYTE  declare.a65:53
CURTOL . . . . . . . . . . . . .   71    113  LBL BYTE  declare.a65:116
CVERF. . . . . . . . . . . . . . E165  57701  LBL WORD  code26.a65:80
CZLOOP . . . . . . . . . . . . . A544  42308  LBL WORD  code1.a65:136
DATA . . . . . . . . . . . . . . A8F8  43256  LBL WORD  code5.a65:28
DATAN. . . . . . . . . . . . . . A906  43270  LBL WORD  code5.a65:36
DATATK . . . . . . . . . . . . .   83    131  VAR BYTE  tokens.a65:91
DATBK. . . . . . . . . . . . . . AC4D  44109  LBL WORD  code7.a65:145
DATBK1 . . . . . . . . . . . . . AC51  44113  LBL WORD  code8.a65:2
DATLIN . . . . . . . . . . . . .   3F     63  LBL BYTE  declare.a65:56
DATLOP . . . . . . . . . . . . . ACB8  44216  LBL WORD  code8.a65:49
DATPTR . . . . . . . . . . . . .   41     65  LBL BYTE  declare.a65:57
DECBLT . . . . . . . . . . . . . A3F3  41971  LBL WORD  token2.a65:212
DECCNT . . . . . . . . . . . . .   5D     93  LBL BYTE  declare.a65:84
DECCUR . . . . . . . . . . . . . B2CD  45773  LBL WORD  code13.a65:7
DEF. . . . . . . . . . . . . . . B3B3  46003  LBL WORD  code13.a65:137
DEFFIN . . . . . . . . . . . . . B44F  46159  LBL WORD  code14.a65:66
DEFPNT . . . . . . . . . . . . .   4E     78  LBL BYTE  declare.a65:71
DEFSTF . . . . . . . . . . . . . B418  46104  LBL WORD  code14.a65:35
DEGREE . . . . . . . . . . . . .   67    103  LBL BYTE  declare.a65:101
DIM. . . . . . . . . . . . . . . B081  45185  LBL WORD  code11.a65:15
DIM3 . . . . . . . . . . . . . . B07E  45182  LBL WORD  code11.a65:14
DIMFLG . . . . . . . . . . . . .   0C     12  LBL BYTE  declare.a65:22
DIMRTS . . . . . . . . . . . . . B34B  45899  LBL WORD  code13.a65:78
DIRCN1 . . . . . . . . . . . . . A7CE  42958  LBL WORD  code4.a65:18
DIRCON . . . . . . . . . . . . . A7BE  42942  LBL WORD  code4.a65:10
DIRIS. . . . . . . . . . . . . . A849  43081  LBL WORD  code4.a65:79
DIV10. . . . . . . . . . . . . . BAFE  47870  LBL WORD  code19.a65:138
DIVIDE . . . . . . . . . . . . . BB29  47913  LBL WORD  code19.a65:157
DIVNRM . . . . . . . . . . . . . BB7E  47998  LBL WORD  code19.a65:202
DIVSUB . . . . . . . . . . . . . BB5D  47965  LBL WORD  code19.a65:185
DNTCPY . . . . . . . . . . . . . AA4B  43595  LBL WORD  code6.a65:46
DOAGIN . . . . . . . . . . . . . AB6B  43883  LBL WORD  code7.a65:43
DOCMP. . . . . . . . . . . . . . B072  45170  LBL WORD  code11.a65:7
DOCO . . . . . . . . . . . . . . A948  43336  LBL WORD  code5.a65:67
DOCOND . . . . . . . . . . . . . A940  43328  LBL WORD  code5.a65:64
DOCSTR . . . . . . . . . . . . . AD97  44439  LBL WORD  code9.a65:5
DOMASK . . . . . . . . . . . . .   12     18  LBL BYTE  declare.a65:29
DOMIN. . . . . . . . . . . . . . AF0D  44813  LBL WORD  code9.a65:197
DOPRE1 . . . . . . . . . . . . . AE20  44576  LBL WORD  code9.a65:75
DOPREC . . . . . . . . . . . . . ADF9  44537  LBL WORD  code9.a65:54
DOREL. . . . . . . . . . . . . . B016  45078  LBL WORD  code10.a65:139
DORES. . . . . . . . . . . . . .   0F     15  LBL BYTE  declare.a65:26
DOSGFL . . . . . . . . . . . . . B81B  47131  LBL WORD  code17.a65:63
DPTFLG . . . . . . . . . . . . .   5F     95  LBL BYTE  declare.a65:87
DSCPNT . . . . . . . . . . . . .   50     80  LBL BYTE  declare.a65:72
DSCTMP . . . . . . . . . . . . .   61     97  LBL BYTE  declare.a65:92
DV0ERR . . . . . . . . . . . . . BB8A  48010  LBL WORD  code19.a65:211
DVAR . . . . . . . . . . . . . . B5C7  46535  LBL WORD  code15.a65:63
DVAR2. . . . . . . . . . . . . . B5DC  46556  LBL WORD  code15.a65:75
DVAR3. . . . . . . . . . . . . . B5E6  46566  LBL WORD  code15.a65:80
DVARS. . . . . . . . . . . . . . B5BD  46525  LBL WORD  code15.a65:57
DVARTS . . . . . . . . . . . . . B5F6  46582  LBL WORD  code15.a65:88
EATEM. . . . . . . . . . . . . . B0B0  45232  LBL WORD  code11.a65:36
END. . . . . . . . . . . . . . . A831  43057  LBL WORD  code4.a65:66
ENDCHR . . . . . . . . . . . . .   08      8  LBL BYTE  declare.a65:18
ENDCON . . . . . . . . . . . . . A84B  43083  LBL WORD  code4.a65:81
ENDREL . . . . . . . . . . . . . ADD7  44503  LBL WORD  code9.a65:37
ENDTK. . . . . . . . . . . . . .   80    128  VAR BYTE  tokens.a65:86
EORMSK . . . . . . . . . . . . .   4A     74  VAR BYTE  declare.a65:65
EPSGN. . . . . . . . . . . . . .   60     96  VAR BYTE  declare.a65:91
EQULTK . . . . . . . . . . . . .   B2    178  VAR BYTE  token2.a65:28
ERBRK. . . . . . . . . . . . . .   1E     30  VAR BYTE  token2.a65:149
EREXIT . . . . . . . . . . . . . E0F9  57593  LBL WORD  code26.a65:4
EREXIX . . . . . . . . . . . . . E104  57604  LBL WORD  code26.a65:10
EREXIY . . . . . . . . . . . . . E109  57609  LBL WORD  code26.a65:13
ERLOAD . . . . . . . . . . . . .   1D     29  VAR BYTE  token2.a65:109
ERR. . . . . . . . . . . . . . . A369  41833  LBL WORD  token2.a65:146
ERR01. . . . . . . . . . . . . . A19E  41374  LBL WORD  token2.a65:60
ERR02. . . . . . . . . . . . . . A1AC  41388  LBL WORD  token2.a65:61
ERR03. . . . . . . . . . . . . . A1B5  41397  LBL WORD  token2.a65:62
ERR04. . . . . . . . . . . . . . A1C2  41410  LBL WORD  token2.a65:63
ERR05. . . . . . . . . . . . . . A1D0  41424  LBL WORD  token2.a65:64
ERR06. . . . . . . . . . . . . . A1E2  41442  LBL WORD  token2.a65:65
ERR07. . . . . . . . . . . . . . A1F0  41456  LBL WORD  token2.a65:66
ERR08. . . . . . . . . . . . . . A1FF  41471  LBL WORD  token2.a65:67
ERR09. . . . . . . . . . . . . . A210  41488  LBL WORD  token2.a65:68
ERR10. . . . . . . . . . . . . . A225  41509  LBL WORD  token2.a65:69
ERR11. . . . . . . . . . . . . . A235  41525  LBL WORD  token2.a65:71
ERR12. . . . . . . . . . . . . . A23B  41531  LBL WORD  token2.a65:73
ERR13. . . . . . . . . . . . . . A24F  41551  LBL WORD  token2.a65:75
ERR14. . . . . . . . . . . . . . A25A  41562  LBL WORD  token2.a65:77
ERR15. . . . . . . . . . . . . . A26A  41578  LBL WORD  token2.a65:79
ERR16. . . . . . . . . . . . . . A272  41586  LBL WORD  token2.a65:81
ERR17. . . . . . . . . . . . . . A27F  41599  LBL WORD  token2.a65:83
ERR18. . . . . . . . . . . . . . A290  41616  LBL WORD  token2.a65:86
ERR19. . . . . . . . . . . . . . A29D  41629  LBL WORD  token2.a65:88
ERR20. . . . . . . . . . . . . . A2AA  41642  LBL WORD  token2.a65:90
ERR21. . . . . . . . . . . . . . A2BA  41658  LBL WORD  token2.a65:92
ERR22. . . . . . . . . . . . . . A2C8  41672  LBL WORD  token2.a65:94
ERR23. . . . . . . . . . . . . . A2D5  41685  LBL WORD  token2.a65:96
ERR24. . . . . . . . . . . . . . A2E4  41700  LBL WORD  token2.a65:98
ERR25. . . . . . . . . . . . . . A2ED  41709  LBL WORD  token2.a65:100
ERR26. . . . . . . . . . . . . . A300  41728  LBL WORD  token2.a65:102
ERR27. . . . . . . . . . . . . . A30E  41742  LBL WORD  token2.a65:104
ERR28. . . . . . . . . . . . . . A31E  41758  LBL WORD  token2.a65:106
ERR29. . . . . . . . . . . . . . A324  41764  LBL WORD  token2.a65:108
ERR30. . . . . . . . . . . . . . A383  41859  LBL WORD  token2.a65:151
ERRBD. . . . . . . . . . . . . .   18     24  VAR BYTE  token2.a65:99
ERRBS. . . . . . . . . . . . . .   12     18  VAR BYTE  token2.a65:87
ERRCN. . . . . . . . . . . . . .   1A     26  VAR BYTE  token2.a65:103
ERRCRD . . . . . . . . . . . . . A44E  42062  LBL WORD  code1.a65:14
ERRDD. . . . . . . . . . . . . .   13     19  VAR BYTE  token2.a65:89
ERRDIR . . . . . . . . . . . . . B3A6  45990  LBL WORD  code13.a65:130
ERRDVO . . . . . . . . . . . . .   14     20  VAR BYTE  token2.a65:91
ERRFC. . . . . . . . . . . . . .   0E     14  VAR BYTE  token2.a65:78
ERRFIN . . . . . . . . . . . . . A469  42089  LBL WORD  code1.a65:27
ERRGO2 . . . . . . . . . . . . . B4D2  46290  LBL WORD  code14.a65:138
ERRGO3 . . . . . . . . . . . . . B24A  45642  LBL WORD  code12.a65:88
ERRGO4 . . . . . . . . . . . . . AD9B  44443  LBL WORD  code9.a65:7
ERRGO5 . . . . . . . . . . . . . AD32  44338  LBL WORD  code8.a65:99
ERRGUF . . . . . . . . . . . . . B3AE  45998  LBL WORD  code13.a65:135
ERRID. . . . . . . . . . . . . .   15     21  VAR BYTE  token2.a65:93
ERRLS. . . . . . . . . . . . . .   17     23  VAR BYTE  token2.a65:97
ERRNF. . . . . . . . . . . . . .   0A     10  VAR BYTE  token2.a65:70
ERROD. . . . . . . . . . . . . .   0D     13  VAR BYTE  token2.a65:76
ERROM. . . . . . . . . . . . . .   10     16  VAR BYTE  token2.a65:82
ERROR. . . . . . . . . . . . . . A437  42039  LBL WORD  code1.a65:3
ERROV. . . . . . . . . . . . . .   0F     15  VAR BYTE  token2.a65:80
ERRRG. . . . . . . . . . . . . .   0C     12  VAR BYTE  token2.a65:74
ERRSN. . . . . . . . . . . . . .   0B     11  VAR BYTE  token2.a65:72
ERRST. . . . . . . . . . . . . .   19     25  VAR BYTE  token2.a65:101
ERRTAB . . . . . . . . . . . . . A328  41768  LBL WORD  token2.a65:114
ERRTM. . . . . . . . . . . . . .   16     22  VAR BYTE  token2.a65:95
ERRUF. . . . . . . . . . . . . .   1B     27  VAR BYTE  token2.a65:105
ERRUS. . . . . . . . . . . . . .   11     17  VAR BYTE  token2.a65:85
ERVFY. . . . . . . . . . . . . .   1C     28  VAR BYTE  token2.a65:107
EVAL . . . . . . . . . . . . . . AE83  44675  LBL WORD  code9.a65:132
EVAL0. . . . . . . . . . . . . . AE8A  44682  LBL WORD  code9.a65:135
EVAL1. . . . . . . . . . . . . . AE8F  44687  LBL WORD  code9.a65:137
EVAL2. . . . . . . . . . . . . . AE92  44690  LBL WORD  code9.a65:138
EVAL3. . . . . . . . . . . . . . AECC  44748  LBL WORD  code9.a65:167
EVAL4. . . . . . . . . . . . . . AEE3  44771  LBL WORD  code9.a65:178
EXCHQT . . . . . . . . . . . . . A911  43281  LBL WORD  code5.a65:42
EXIGNT . . . . . . . . . . . . . ACFC  44284  LBL WORD  code8.a65:84
EXP. . . . . . . . . . . . . . . BFED  49133  LBL WORD  code24.a65:16
EXP1 . . . . . . . . . . . . . . E00E  57358  LBL WORD  code25.a65:16
EXPCON . . . . . . . . . . . . . BFC4  49092  LBL WORD  code24.a65:3
EXPSGN . . . . . . . . . . . . .   60     96  LBL BYTE  declare.a65:89
FAC. . . . . . . . . . . . . . .   61     97  LBL BYTE  declare.a65:93
FACEXP . . . . . . . . . . . . .   61     97  LBL BYTE  declare.a65:94
FACHO. . . . . . . . . . . . . .   62     98  LBL BYTE  declare.a65:95
FACLO. . . . . . . . . . . . . .   65    101  LBL BYTE  declare.a65:99
FACMO. . . . . . . . . . . . . .   64    100  LBL BYTE  declare.a65:98
FACMOH . . . . . . . . . . . . .   63     99  LBL BYTE  declare.a65:96
FACOV. . . . . . . . . . . . . .   70    112  LBL BYTE  declare.a65:112
FACSGN . . . . . . . . . . . . .   66    102  LBL BYTE  declare.a65:100
FADD . . . . . . . . . . . . . . B867  47207  LBL WORD  code17.a65:99
FADD1. . . . . . . . . . . . . . B897  47255  LBL WORD  code17.a65:123
FADD2. . . . . . . . . . . . . . B8FE  47358  LBL WORD  code18.a65:18
FADD4. . . . . . . . . . . . . . B8A3  47267  LBL WORD  code17.a65:129
FADD5. . . . . . . . . . . . . . B862  47202  LBL WORD  code17.a65:97
FADDA. . . . . . . . . . . . . . B893  47251  LBL WORD  code17.a65:121
FADDC. . . . . . . . . . . . . . B877  47223  LBL WORD  code17.a65:106
FADDH. . . . . . . . . . . . . . B849  47177  LBL WORD  code17.a65:86
FADDT. . . . . . . . . . . . . . B86A  47210  LBL WORD  code17.a65:100
FADFLT . . . . . . . . . . . . . B8D2  47314  LBL WORD  code17.a65:151
FBUFFR . . . . . . . . . . . . . 0100    256  LBL WORD  declare.a65:126
FBUFPT . . . . . . . . . . . . .   71    113  LBL BYTE  declare.a65:117
FCERR. . . . . . . . . . . . . . B248  45640  LBL WORD  code12.a65:87
FCERR2 . . . . . . . . . . . . . AA24  43556  LBL WORD  code6.a65:27
FCOMP. . . . . . . . . . . . . . BC5B  48219  LBL WORD  code20.a65:110
FCOMPC . . . . . . . . . . . . . BC92  48274  LBL WORD  code20.a65:140
FCOMPD . . . . . . . . . . . . . BC98  48280  LBL WORD  code20.a65:143
FCOMPN . . . . . . . . . . . . . BC5D  48221  LBL WORD  code20.a65:111
FCOMPS . . . . . . . . . . . . . BC31  48177  LBL WORD  code20.a65:88
FCSIGN . . . . . . . . . . . . . BC2F  48175  LBL WORD  code20.a65:87
FDCEND . . . . . . . . . . . . . BF3A  48954  LBL WORD  code23.a65:35
FDECPT . . . . . . . . . . . . .   47     71  LBL BYTE  declare.a65:60
FDIV . . . . . . . . . . . . . . BB0F  47887  LBL WORD  code19.a65:145
FDIVF. . . . . . . . . . . . . . BB07  47879  LBL WORD  code19.a65:142
FDIVT. . . . . . . . . . . . . . BB12  47890  LBL WORD  code19.a65:146
FFLOOP . . . . . . . . . . . . . A38F  41871  LBL WORD  token2.a65:159
FFRTS. . . . . . . . . . . . . . A3B7  41911  LBL WORD  token2.a65:178
FHALF. . . . . . . . . . . . . . BF11  48913  LBL WORD  code23.a65:25
FIN. . . . . . . . . . . . . . . BCF3  48371  LBL WORD  code21.a65:48
FIN1 . . . . . . . . . . . . . . BD0F  48399  LBL WORD  code21.a65:62
FINC . . . . . . . . . . . . . . BD0A  48394  LBL WORD  code21.a65:60
FINDG1 . . . . . . . . . . . . . BD71  48497  LBL WORD  code21.a65:110
FINDGQ . . . . . . . . . . . . . BD0D  48397  LBL WORD  code21.a65:61
FINDIG . . . . . . . . . . . . . BD6A  48490  LBL WORD  code21.a65:106
FINDIV . . . . . . . . . . . . . BD52  48466  LBL WORD  code21.a65:95
FINDP. . . . . . . . . . . . . . BD41  48449  LBL WORD  code21.a65:86
FINE . . . . . . . . . . . . . . BD47  48455  LBL WORD  code21.a65:89
FINE1. . . . . . . . . . . . . . BD49  48457  LBL WORD  code21.a65:90
FINEC. . . . . . . . . . . . . . BD30  48432  LBL WORD  code21.a65:78
FINEC1 . . . . . . . . . . . . . BD2E  48430  LBL WORD  code21.a65:77
FINEC2 . . . . . . . . . . . . . BD35  48437  LBL WORD  code21.a65:80
FINEDG . . . . . . . . . . . . . BD91  48529  LBL WORD  code21.a65:125
FINGO. . . . . . . . . . . . . . AFD6  45014  LBL WORD  code10.a65:110
FINI . . . . . . . . . . . . . . A52A  42282  LBL WORD  code1.a65:124
FININ1 . . . . . . . . . . . . . A576  42358  LBL WORD  code1.a65:172
FININL . . . . . . . . . . . . . AACA  43722  LBL WORD  code6.a65:104
FINLOG . . . . . . . . . . . . . BD7E  48510  LBL WORD  code21.a65:116
FINML6 . . . . . . . . . . . . . BAED  47853  LBL WORD  code19.a65:131
FINMUL . . . . . . . . . . . . . BD5B  48475  LBL WORD  code21.a65:99
FINNOW . . . . . . . . . . . . . B18F  45455  LBL WORD  code11.a65:158
FINPTR . . . . . . . . . . . . . B185  45445  LBL WORD  code11.a65:152
FINQNG . . . . . . . . . . . . . BD62  48482  LBL WORD  code21.a65:102
FINRE2 . . . . . . . . . . . . . AE11  44561  LBL WORD  code9.a65:68
FINREL . . . . . . . . . . . . . AE07  44551  LBL WORD  code9.a65:62
FINZLP . . . . . . . . . . . . . BCF7  48375  LBL WORD  code21.a65:50
FLINRT . . . . . . . . . . . . . A640  42560  LBL WORD  code2.a65:108
FLNRTS . . . . . . . . . . . . . A641  42561  LBL WORD  code2.a65:109
FLOAD. . . . . . . . . . . . . . A677  42615  LBL WORD  code2.a65:137
FLOAT. . . . . . . . . . . . . . BC3C  48188  LBL WORD  code20.a65:94
FLOATB . . . . . . . . . . . . . BC4F  48207  LBL WORD  code20.a65:104
FLOATC . . . . . . . . . . . . . BC49  48201  LBL WORD  code20.a65:101
FLOATS . . . . . . . . . . . . . BC44  48196  LBL WORD  code20.a65:98
FLPINT . . . . . . . . . . . . . B1AA  45482  LBL WORD  code12.a65:3
FMAPTR . . . . . . . . . . . . . B194  45460  LBL WORD  code11.a65:161
FMULT. . . . . . . . . . . . . . BA28  47656  LBL WORD  code19.a65:30
FMULTT . . . . . . . . . . . . . BA2B  47659  LBL WORD  code19.a65:31
FNDFOR . . . . . . . . . . . . . A38A  41866  LBL WORD  token2.a65:154
FNDLIN . . . . . . . . . . . . . A613  42515  LBL WORD  code2.a65:82
FNDLNC . . . . . . . . . . . . . A617  42519  LBL WORD  code2.a65:84
FNDLO1 . . . . . . . . . . . . . A62E  42542  LBL WORD  code2.a65:97
FNDOER . . . . . . . . . . . . . B3F4  46068  LBL WORD  code14.a65:15
FNDVAR . . . . . . . . . . . . . B52A  46378  LBL WORD  code14.a65:187
FNEDG1 . . . . . . . . . . . . . BD33  48435  LBL WORD  code21.a65:79
FNTK . . . . . . . . . . . . . .   A5    165  VAR BYTE  token2.a65:7
FNWAIT . . . . . . . . . . . . . B82D  47149  LBL WORD  code17.a65:73
FONE . . . . . . . . . . . . . . B9BC  47548  LBL WORD  code18.a65:116
FOR. . . . . . . . . . . . . . . A742  42818  LBL WORD  code3.a65:85
FORPNT . . . . . . . . . . . . .   49     73  LBL BYTE  declare.a65:64
FORPSH . . . . . . . . . . . . . AE43  44611  LBL WORD  code9.a65:93
FORSIZ . . . . . . . . . . . . .   12     18  VAR BYTE  token2.a65:153
FORTK. . . . . . . . . . . . . .   81    129  VAR BYTE  tokens.a65:88
FOULDY . . . . . . . . . . . . . BEC4  48836  LBL WORD  code22.a65:134
FOUR6. . . . . . . . . . . . . .   53     83  LBL BYTE  declare.a65:74
FOUT . . . . . . . . . . . . . . BDDD  48605  LBL WORD  code22.a65:17
FOUT1. . . . . . . . . . . . . . BDE7  48615  LBL WORD  code22.a65:22
FOUT11 . . . . . . . . . . . . . BEC6  48838  LBL WORD  code22.a65:135
FOUT12 . . . . . . . . . . . . . BED3  48851  LBL WORD  code22.a65:142
FOUT14 . . . . . . . . . . . . . BEE3  48867  LBL WORD  code23.a65:3
FOUT15 . . . . . . . . . . . . . BEEF  48879  LBL WORD  code23.a65:9
FOUT16 . . . . . . . . . . . . . BE64  48740  LBL WORD  code22.a65:83
FOUT17 . . . . . . . . . . . . . BF07  48903  LBL WORD  code23.a65:20
FOUT19 . . . . . . . . . . . . . BF04  48900  LBL WORD  code23.a65:19
FOUT2. . . . . . . . . . . . . . BE6A  48746  LBL WORD  code22.a65:86
FOUT20 . . . . . . . . . . . . . BF0C  48908  LBL WORD  code23.a65:22
FOUT3. . . . . . . . . . . . . . BE16  48662  LBL WORD  code22.a65:44
FOUT37 . . . . . . . . . . . . . BE00  48640  LBL WORD  code22.a65:34
FOUT38 . . . . . . . . . . . . . BE21  48673  LBL WORD  code22.a65:49
FOUT39 . . . . . . . . . . . . . BE53  48723  LBL WORD  code22.a65:74
FOUT4. . . . . . . . . . . . . . BE0B  48651  LBL WORD  code22.a65:39
FOUT40 . . . . . . . . . . . . . BE90  48784  LBL WORD  code22.a65:104
FOUT41 . . . . . . . . . . . . . BE8E  48782  LBL WORD  code22.a65:103
FOUT5. . . . . . . . . . . . . . BE2F  48687  LBL WORD  code22.a65:55
FOUT6. . . . . . . . . . . . . . BE48  48712  LBL WORD  code22.a65:68
FOUT7. . . . . . . . . . . . . . BE09  48649  LBL WORD  code22.a65:38
FOUT8. . . . . . . . . . . . . . BE66  48742  LBL WORD  code22.a65:84
FOUT9. . . . . . . . . . . . . . BE28  48680  LBL WORD  code22.a65:52
FOUTBL . . . . . . . . . . . . . BF16  48918  LBL WORD  code23.a65:27
FOUTC. . . . . . . . . . . . . . BDDF  48607  LBL WORD  code22.a65:18
FOUTIM . . . . . . . . . . . . . BE68  48744  LBL WORD  code22.a65:85
FOUTPI . . . . . . . . . . . . . BE47  48711  LBL WORD  code22.a65:67
FOUTYP . . . . . . . . . . . . . BE97  48791  LBL WORD  code22.a65:108
FPWR1. . . . . . . . . . . . . . BF9E  49054  LBL WORD  code23.a65:65
FPWRT. . . . . . . . . . . . . . BF7B  49019  LBL WORD  code23.a65:49
FPWRT1 . . . . . . . . . . . . . BF84  49028  LBL WORD  code23.a65:53
FR4. . . . . . . . . . . . . . . E2EA  58090  LBL WORD  trig.a65:58
FRE. . . . . . . . . . . . . . . B37D  45949  LBL WORD  code13.a65:110
FREFAC . . . . . . . . . . . . . B6A6  46758  LBL WORD  code16.a65:26
FREMES . . . . . . . . . . . . . E473  58483  LBL WORD  init.a65:115
FREPLA . . . . . . . . . . . . . B6D5  46805  LBL WORD  code16.a65:54
FRERTS . . . . . . . . . . . . . B6EB  46827  LBL WORD  code16.a65:66
FRESPC . . . . . . . . . . . . .   35     53  LBL BYTE  declare.a65:51
FRESTR . . . . . . . . . . . . . B6A3  46755  LBL WORD  code16.a65:25
FRETMP . . . . . . . . . . . . . B6AA  46762  LBL WORD  code16.a65:28
FRETMS . . . . . . . . . . . . . B6DB  46811  LBL WORD  code16.a65:58
FRETOP . . . . . . . . . . . . .   33     51  LBL BYTE  declare.a65:50
FRETRT . . . . . . . . . . . . . B6D6  46806  LBL WORD  code16.a65:55
FRMEV1 . . . . . . . . . . . . . ADA4  44452  LBL WORD  code9.a65:11
FRMEVL . . . . . . . . . . . . . AD9E  44446  LBL WORD  code9.a65:8
FRMNUM . . . . . . . . . . . . . AD8A  44426  LBL WORD  code8.a65:141
FSUB . . . . . . . . . . . . . . B850  47184  LBL WORD  code17.a65:89
FSUBT. . . . . . . . . . . . . . B853  47187  LBL WORD  code17.a65:90
FUNDSP . . . . . . . . . . . . . A052  41042  LBL WORD  tokens.a65:41
GARBA2 . . . . . . . . . . . . . B526  46374  LBL WORD  code14.a65:185
GARBAG . . . . . . . . . . . . . B516  46358  LBL WORD  code14.a65:177
GARBFL . . . . . . . . . . . . .   0F     15  LBL BYTE  declare.a65:25
GET. . . . . . . . . . . . . . . AB7B  43899  LBL WORD  code7.a65:51
GETADR . . . . . . . . . . . . . B7F7  47095  LBL WORD  code17.a65:44
GETAGN . . . . . . . . . . . . . ABD6  43990  LBL WORD  code7.a65:91
GETBPT . . . . . . . . . . . . . A5C7  42439  LBL WORD  code2.a65:43
GETBYT . . . . . . . . . . . . . B79E  47006  LBL WORD  code17.a65:2
GETCMP . . . . . . . . . . . . . B066  45158  LBL WORD  code10.a65:180
GETCON . . . . . . . . . . . . . B818  47128  LBL WORD  code17.a65:61
GETDEF . . . . . . . . . . . . . B2EA  45802  LBL WORD  code13.a65:23
GETDTL . . . . . . . . . . . . . AB57  43863  LBL WORD  code7.a65:34
GETERR . . . . . . . . . . . . . A456  42070  LBL WORD  code1.a65:17
GETFNM . . . . . . . . . . . . . B3E1  46049  LBL WORD  code14.a65:7
GETFOR . . . . . . . . . . . . . AD24  44324  LBL WORD  code8.a65:93
GETNTH . . . . . . . . . . . . . AC4A  44106  LBL WORD  code7.a65:144
GETNUM . . . . . . . . . . . . . B7EB  47083  LBL WORD  code17.a65:40
GETSPA . . . . . . . . . . . . . B4F4  46324  LBL WORD  code14.a65:157
GETSPT . . . . . . . . . . . . . AA2C  43564  LBL WORD  code6.a65:30
GETSTK . . . . . . . . . . . . . A3FB  41979  LBL WORD  token2.a65:217
GETTIM . . . . . . . . . . . . . AF84  44932  LBL WORD  code10.a65:67
GETTTY . . . . . . . . . . . . . AB92  43922  LBL WORD  code7.a65:61
GINLIN . . . . . . . . . . . . . AC03  44035  LBL WORD  code7.a65:109
GIVAYF . . . . . . . . . . . . . B391  45969  LBL WORD  code13.a65:120
GLET . . . . . . . . . . . . . . A804  43012  LBL WORD  code4.a65:45
GMOVMF . . . . . . . . . . . . . E0F6  57590  LBL WORD  code25.a65:126
GOBADV . . . . . . . . . . . . . B138  45368  LBL WORD  code11.a65:109
GOFLOT . . . . . . . . . . . . . B07B  45179  LBL WORD  code11.a65:13
GOFUC. . . . . . . . . . . . . . B798  47000  LBL WORD  code16.a65:162
GOGO . . . . . . . . . . . . . . B5B8  46520  LBL WORD  code15.a65:55
GOLST. . . . . . . . . . . . . . A6A4  42660  LBL WORD  code3.a65:6
GOMLDV . . . . . . . . . . . . . E00B  57355  LBL WORD  code25.a65:15
GOMOVF . . . . . . . . . . . . . AFA0  44960  LBL WORD  code10.a65:80
GONE . . . . . . . . . . . . . . A7E1  42977  LBL WORD  code4.a65:29
GONE2. . . . . . . . . . . . . . A7EF  42991  LBL WORD  code4.a65:34
GONE3. . . . . . . . . . . . . . A7ED  42989  LBL WORD  code4.a65:33
GONPRC . . . . . . . . . . . . . AF0F  44815  LBL WORD  code9.a65:198
GOOO . . . . . . . . . . . . . . AF5D  44893  LBL WORD  code10.a65:47
GOOOOO . . . . . . . . . . . . . AF6E  44910  LBL WORD  code10.a65:57
GOOVER . . . . . . . . . . . . . BADF  47839  LBL WORD  code19.a65:124
GORDY. . . . . . . . . . . . . . A854  43092  LBL WORD  code4.a65:85
GORTS. . . . . . . . . . . . . . A8D1  43217  LBL WORD  code5.a65:6
GOSUB. . . . . . . . . . . . . . A883  43139  LBL WORD  code4.a65:107
GOSUTK . . . . . . . . . . . . .   8D    141  VAR BYTE  tokens.a65:103
GOTARY . . . . . . . . . . . . . B24D  45645  LBL WORD  code12.a65:89
GOTK . . . . . . . . . . . . . .   CB    203  VAR BYTE  token2.a65:57
GOTNUM . . . . . . . . . . . . . AA27  43559  LBL WORD  code6.a65:28
GOTO . . . . . . . . . . . . . . A8A0  43168  LBL WORD  code4.a65:122
GOTOTK . . . . . . . . . . . . .   89    137  VAR BYTE  tokens.a65:98
GRBPAS . . . . . . . . . . . . . B606  46598  LBL WORD  code15.a65:97
GRBPNT . . . . . . . . . . . . .   4E     78  LBL BYTE  declare.a65:69
GRBRTS . . . . . . . . . . . . . B601  46593  LBL WORD  code15.a65:94
GRBTOP . . . . . . . . . . . . .   5F     95  LBL BYTE  declare.a65:86
GREASE . . . . . . . . . . . . . B2B9  45753  LBL WORD  code12.a65:149
GREATK . . . . . . . . . . . . .   B1    177  VAR BYTE  token2.a65:26
GRODY. . . . . . . . . . . . . . A714  42772  LBL WORD  code3.a65:62
GTBYTC . . . . . . . . . . . . . B79B  47003  LBL WORD  code16.a65:163
HAVFOR . . . . . . . . . . . . . AD35  44341  LBL WORD  code8.a65:100
HIGHDS . . . . . . . . . . . . .   58     88  LBL BYTE  declare.a65:80
HIGHTR . . . . . . . . . . . . .   5A     90  LBL BYTE  declare.a65:81
ICRNCH . . . . . . . . . . . . . 0304    772  LBL WORD  declare.a65:132
IERROR . . . . . . . . . . . . . 0300    768  LBL WORD  declare.a65:130
IEVAL. . . . . . . . . . . . . . 030A    778  LBL WORD  declare.a65:135
IF . . . . . . . . . . . . . . . A928  43304  LBL WORD  code5.a65:54
IGONE. . . . . . . . . . . . . . 0308    776  LBL WORD  declare.a65:134
IMAIN. . . . . . . . . . . . . . 0302    770  LBL WORD  declare.a65:131
INCFAC . . . . . . . . . . . . . B96F  47471  LBL WORD  code18.a65:75
INCFRT . . . . . . . . . . . . . B97D  47485  LBL WORD  code18.a65:82
INCHR. . . . . . . . . . . . . . E112  57618  LBL WORD  code26.a65:21
INCRND . . . . . . . . . . . . . BC23  48163  LBL WORD  code20.a65:82
INDEX. . . . . . . . . . . . . .   22     34  LBL BYTE  declare.a65:37
INDEX1 . . . . . . . . . . . . .   22     34  LBL BYTE  declare.a65:38
INDEX2 . . . . . . . . . . . . .   24     36  LBL BYTE  declare.a65:39
INDICE . . . . . . . . . . . . .   64    100  LBL BYTE  declare.a65:97
INDLOP . . . . . . . . . . . . . B1DB  45531  LBL WORD  code12.a65:26
INIT . . . . . . . . . . . . . . E394  58260  LBL WORD  init.a65:15
INIT20 . . . . . . . . . . . . . E421  58401  LBL WORD  init.a65:84
INITAT . . . . . . . . . . . . . E3A2  58274  LBL WORD  init.a65:22
INITCZ . . . . . . . . . . . . . E3BF  58303  LBL WORD  init.a65:37
INITMS . . . . . . . . . . . . . E422  58402  LBL WORD  init.a65:86
INITV. . . . . . . . . . . . . . E453  58451  LBL WORD  init.a65:106
INITV1 . . . . . . . . . . . . . E455  58453  LBL WORD  init.a65:107
INLIN. . . . . . . . . . . . . . A560  42336  LBL WORD  code1.a65:158
INLINC . . . . . . . . . . . . . A562  42338  LBL WORD  code1.a65:160
INLOOP . . . . . . . . . . . . . AC15  44053  LBL WORD  code7.a65:119
INLPN1 . . . . . . . . . . . . . B30F  45839  LBL WORD  code13.a65:44
INLPN2 . . . . . . . . . . . . . B30E  45838  LBL WORD  code13.a65:43
INLPNM . . . . . . . . . . . . . B2F2  45810  LBL WORD  code13.a65:27
INPCO1 . . . . . . . . . . . . . AC0F  44047  LBL WORD  code7.a65:116
INPCOM . . . . . . . . . . . . . A9DA  43482  LBL WORD  code5.a65:140
INPCON . . . . . . . . . . . . . AC0D  44045  LBL WORD  code7.a65:115
INPFLG . . . . . . . . . . . . .   11     17  LBL BYTE  declare.a65:28
INPPTR . . . . . . . . . . . . .   43     67  LBL BYTE  declare.a65:58
INPRT. . . . . . . . . . . . . . BDC2  48578  LBL WORD  code22.a65:5
INPRTS . . . . . . . . . . . . . ACFB  44283  LBL WORD  code8.a65:83
INPUT. . . . . . . . . . . . . . ABBF  43967  LBL WORD  code7.a65:82
INPUTN . . . . . . . . . . . . . ABA5  43941  LBL WORD  code7.a65:71
INT. . . . . . . . . . . . . . . BCCC  48332  LBL WORD  code21.a65:28
INTEGR . . . . . . . . . . . . .   07      7  LBL BYTE  declare.a65:16
INTERR . . . . . . . . . . . . . B09C  45212  LBL WORD  code11.a65:27
INTFLG . . . . . . . . . . . . .   0E     14  LBL BYTE  declare.a65:24
INTIDX . . . . . . . . . . . . . B1B2  45490  LBL WORD  code12.a65:7
INTRTS . . . . . . . . . . . . . BCF2  48370  LBL WORD  code21.a65:47
INTXT. . . . . . . . . . . . . . A371  41841  LBL WORD  token2.a65:147
IODONE . . . . . . . . . . . . . ABB5  43957  LBL WORD  code7.a65:77
IORELE . . . . . . . . . . . . . ABB7  43959  LBL WORD  code7.a65:78
IQPLOP . . . . . . . . . . . . . 0306    774  LBL WORD  declare.a65:133
ISARY. . . . . . . . . . . . . . B1D1  45521  LBL WORD  code12.a65:20
ISCNTC . . . . . . . . . . . . . A82C  43052  LBL WORD  code4.a65:64
ISCRTS . . . . . . . . . . . . . A82B  43051  LBL WORD  code4.a65:63
ISFUN. . . . . . . . . . . . . . AFA7  44967  LBL WORD  code10.a65:83
ISLETC . . . . . . . . . . . . . B113  45331  LBL WORD  code11.a65:87
ISLRTS . . . . . . . . . . . . . B11C  45340  LBL WORD  code11.a65:92
ISSEC. . . . . . . . . . . . . . B0AF  45231  LBL WORD  code11.a65:35
ISVAR. . . . . . . . . . . . . . AF28  44840  LBL WORD  code10.a65:22
ISVRET . . . . . . . . . . . . . AF2B  44843  LBL WORD  code10.a65:23
JERXIT . . . . . . . . . . . . . E1D1  57809  LBL WORD  code26.a65:153
JMPER. . . . . . . . . . . . . .   54     84  LBL BYTE  declare.a65:75
JSRGM. . . . . . . . . . . . . . B1A0  45472  LBL WORD  code11.a65:168
KLOOP. . . . . . . . . . . . . . A582  42370  LBL WORD  code2.a65:7
KLOOP1 . . . . . . . . . . . . . A5A4  42404  LBL WORD  code2.a65:24
LASNUM . . . . . . . . . . . . .   C7    199  VAR BYTE  token2.a65:52
LASTPT . . . . . . . . . . . . .   17     23  LBL BYTE  declare.a65:35
LD100. . . . . . . . . . . . . . BB7A  47994  LBL WORD  code19.a65:200
LDFONE . . . . . . . . . . . . . A78B  42891  LBL WORD  code3.a65:123
LDZR . . . . . . . . . . . . . . B123  45347  LBL WORD  code11.a65:98
LEFTD. . . . . . . . . . . . . . B700  46848  LBL WORD  code16.a65:78
LEN. . . . . . . . . . . . . . . B77C  46972  LBL WORD  code16.a65:149
LEN1 . . . . . . . . . . . . . . B782  46978  LBL WORD  code16.a65:151
LESSTK . . . . . . . . . . . . .   B3    179  VAR BYTE  token2.a65:30
LET. . . . . . . . . . . . . . . A9A5  43429  LBL WORD  code5.a65:113
LINGET . . . . . . . . . . . . . A96B  43371  LBL WORD  code5.a65:84
LINLEN . . . . . . . . . . . . .   28     40  VAR BYTE  declare.a65:4
LINNUM . . . . . . . . . . . . .   14     20  LBL BYTE  declare.a65:33
LINPRT . . . . . . . . . . . . . BDCD  48589  LBL WORD  code22.a65:10
LIST . . . . . . . . . . . . . . A69C  42652  LBL WORD  code3.a65:2
LIST4. . . . . . . . . . . . . . A6C9  42697  LBL WORD  code3.a65:23
LNKPRG . . . . . . . . . . . . . A533  42291  LBL WORD  code1.a65:127
LNKRTS . . . . . . . . . . . . . A55F  42335  LBL WORD  code1.a65:152
LOFBUF . . . . . . . . . . . . .   FF    255  LBL BYTE  declare.a65:125
LOG. . . . . . . . . . . . . . . B9EA  47594  LBL WORD  code19.a65:2
LOG1 . . . . . . . . . . . . . . B9F4  47604  LBL WORD  code19.a65:6
LOG2 . . . . . . . . . . . . . . B9E5  47589  LBL WORD  code18.a65:125
LOGCN2 . . . . . . . . . . . . . B9C1  47553  LBL WORD  code18.a65:117
LOGEB2 . . . . . . . . . . . . . BFBF  49087  LBL WORD  code24.a65:2
LOGERR . . . . . . . . . . . . . B9F1  47601  LBL WORD  code19.a65:5
LOOPDN . . . . . . . . . . . . . AD78  44408  LBL WORD  code8.a65:132
LOPFDA . . . . . . . . . . . . . B21C  45596  LBL WORD  code12.a65:62
LOPFDV . . . . . . . . . . . . . B228  45608  LBL WORD  code12.a65:68
LOPFN. . . . . . . . . . . . . . B0FB  45307  LBL WORD  code11.a65:73
LOPFND . . . . . . . . . . . . . B0F1  45297  LBL WORD  code11.a65:68
LOPPTA . . . . . . . . . . . . . B286  45702  LBL WORD  code12.a65:119
LOPREL . . . . . . . . . . . . . ADBB  44475  LBL WORD  code9.a65:23
LOWDS. . . . . . . . . . . . . .   5D     93  LBL BYTE  declare.a65:85
LOWTR. . . . . . . . . . . . . .   5F     95  LBL BYTE  declare.a65:88
LPOPER . . . . . . . . . . . . . ADA9  44457  LBL WORD  code9.a65:14
LSTEND . . . . . . . . . . . . . A6BB  42683  LBL WORD  code3.a65:15
LSTPNT . . . . . . . . . . . . .   49     73  LBL BYTE  declare.a65:62
LUK4IT . . . . . . . . . . . . . A8BC  43196  LBL WORD  code4.a65:137
LUKALL . . . . . . . . . . . . . A8C0  43200  LBL WORD  code4.a65:139
MAIN . . . . . . . . . . . . . . A480  42112  LBL WORD  code1.a65:39
MAIN1. . . . . . . . . . . . . . A49C  42140  LBL WORD  code1.a65:51
MEMSIZ . . . . . . . . . . . . .   37     55  LBL BYTE  declare.a65:52
MID2 . . . . . . . . . . . . . . B748  46920  LBL WORD  code16.a65:115
MIDD . . . . . . . . . . . . . . B737  46903  LBL WORD  code16.a65:108
MINUTK . . . . . . . . . . . . .   AB    171  VAR BYTE  token2.a65:19
MLDEXP . . . . . . . . . . . . . BAB9  47801  LBL WORD  code19.a65:103
MLDVEX . . . . . . . . . . . . . BAD4  47828  LBL WORD  code19.a65:118
MLEX10 . . . . . . . . . . . . . BDA0  48544  LBL WORD  code21.a65:132
MLEXMI . . . . . . . . . . . . . BDAE  48558  LBL WORD  code21.a65:142
MLOOP. . . . . . . . . . . . . . A4DF  42207  LBL WORD  code1.a65:87
MLTPL1 . . . . . . . . . . . . . BA5E  47710  LBL WORD  code19.a65:52
MLTPL2 . . . . . . . . . . . . . BA61  47713  LBL WORD  code19.a65:54
MLTPL3 . . . . . . . . . . . . . BA7D  47741  LBL WORD  code19.a65:69
MLTPLY . . . . . . . . . . . . . BA59  47705  LBL WORD  code19.a65:50
MORCO1 . . . . . . . . . . . . . AAEE  43758  LBL WORD  code6.a65:125
MOREN1 . . . . . . . . . . . . . A3EC  41964  LBL WORD  token2.a65:208
MORLIN . . . . . . . . . . . . . A971  43377  LBL WORD  code5.a65:87
MORSTS . . . . . . . . . . . . . A807  43015  LBL WORD  code4.a65:46
MOV1F. . . . . . . . . . . . . . BBCA  48074  LBL WORD  code20.a65:34
MOV2F. . . . . . . . . . . . . . BBC7  48071  LBL WORD  code20.a65:32
MOVAF. . . . . . . . . . . . . . BC0C  48140  LBL WORD  code20.a65:70
MOVAFL . . . . . . . . . . . . . BC11  48145  LBL WORD  code20.a65:72
MOVCHG . . . . . . . . . . . . . E3E2  58338  LBL WORD  init.a65:53
MOVDO. . . . . . . . . . . . . . B68C  46732  LBL WORD  code16.a65:10
MOVEF. . . . . . . . . . . . . . BC0F  48143  LBL WORD  code20.a65:71
MOVFA. . . . . . . . . . . . . . BBFC  48124  LBL WORD  code20.a65:61
MOVFA1 . . . . . . . . . . . . . BBFE  48126  LBL WORD  code20.a65:62
MOVFAL . . . . . . . . . . . . . BC02  48130  LBL WORD  code20.a65:64
MOVFM. . . . . . . . . . . . . . BBA2  48034  LBL WORD  code20.a65:11
MOVFR. . . . . . . . . . . . . . BB8F  48015  LBL WORD  code20.a65:2
MOVINS . . . . . . . . . . . . . B67A  46714  LBL WORD  code15.a65:154
MOVLP. . . . . . . . . . . . . . B690  46736  LBL WORD  code16.a65:13
MOVMF. . . . . . . . . . . . . . BBD4  48084  LBL WORD  code20.a65:39
MOVRTS . . . . . . . . . . . . . BC1A  48154  LBL WORD  code20.a65:77
MOVSTR . . . . . . . . . . . . . B688  46728  LBL WORD  code16.a65:8
MOVVF. . . . . . . . . . . . . . BBD0  48080  LBL WORD  code20.a65:37
MUL10. . . . . . . . . . . . . . BAE2  47842  LBL WORD  code19.a65:125
MUL10R . . . . . . . . . . . . . BAF8  47864  LBL WORD  code19.a65:136
MULDIV . . . . . . . . . . . . . BAB7  47799  LBL WORD  code19.a65:102
MULSHF . . . . . . . . . . . . . B983  47491  LBL WORD  code18.a65:85
MULTRT . . . . . . . . . . . . . BA8B  47755  LBL WORD  code19.a65:77
MUSTCR . . . . . . . . . . . . . A5AC  42412  LBL WORD  code2.a65:28
MVDONE . . . . . . . . . . . . . B699  46745  LBL WORD  code16.a65:19
MVSTRT . . . . . . . . . . . . . B6A2  46754  LBL WORD  code16.a65:24
N0999. . . . . . . . . . . . . . BDB3  48563  LBL WORD  code22.a65:2
N32768 . . . . . . . . . . . . . B1A5  45477  LBL WORD  code12.a65:2
N9999. . . . . . . . . . . . . . BDB8  48568  LBL WORD  code22.a65:3
NCMPOS . . . . . . . . . . . . .   1E     30  VAR BYTE  code6.a65:123
NCRNCH . . . . . . . . . . . . . A57C  42364  LBL WORD  code2.a65:4
NEGFAC . . . . . . . . . . . . . B947  47431  LBL WORD  code18.a65:55
NEGFCH . . . . . . . . . . . . . B94D  47437  LBL WORD  code18.a65:58
NEGHLF . . . . . . . . . . . . . B9E0  47584  LBL WORD  code18.a65:124
NEGOP. . . . . . . . . . . . . . BFB4  49076  LBL WORD  code23.a65:76
NEGPRC . . . . . . . . . . . . . ADFA  44538  LBL WORD  code9.a65:55
NEGRTS . . . . . . . . . . . . . BFBE  49086  LBL WORD  code23.a65:81
NEGTAB . . . . . . . . . . . . . A095  41109  LBL WORD  tokens.a65:78
NEGXQS . . . . . . . . . . . . . BD67  48487  LBL WORD  code21.a65:105
NERROR . . . . . . . . . . . . . E38B  58251  LBL WORD  init.a65:10
NERROX . . . . . . . . . . . . . A43A  42042  LBL WORD  code1.a65:4
NEVAL. . . . . . . . . . . . . . AE86  44678  LBL WORD  code9.a65:133
NEWCHR . . . . . . . . . . . . . AA9D  43677  LBL WORD  code6.a65:84
NEWSGO . . . . . . . . . . . . . AD75  44405  LBL WORD  code8.a65:131
NEWSTT . . . . . . . . . . . . . A7AE  42926  LBL WORD  code4.a65:2
NEXT . . . . . . . . . . . . . . AD1E  44318  LBL WORD  code8.a65:90
NGONE. . . . . . . . . . . . . . A7E4  42980  LBL WORD  code4.a65:30
NGONE1 . . . . . . . . . . . . . A7E7  42983  LBL WORD  code4.a65:31
NMAIN. . . . . . . . . . . . . . A483  42115  LBL WORD  code1.a65:40
NMARY1 . . . . . . . . . . . . . B237  45623  LBL WORD  code12.a65:76
NMIL . . . . . . . . . . . . . . BDBD  48573  LBL WORD  code22.a65:4
NODATT . . . . . . . . . . . . . A5DE  42462  LBL WORD  code2.a65:55
NODEL. . . . . . . . . . . . . . A4ED  42221  LBL WORD  code1.a65:95
NODELC . . . . . . . . . . . . . A508  42248  LBL WORD  code1.a65:108
NOFREF . . . . . . . . . . . . . B384  45956  LBL WORD  code13.a65:113
NOML6. . . . . . . . . . . . . . AA07  43527  LBL WORD  code6.a65:14
NONONO . . . . . . . . . . . . . B1CC  45516  LBL WORD  code12.a65:18
NORM1. . . . . . . . . . . . . . B929  47401  LBL WORD  code18.a65:39
NORM2. . . . . . . . . . . . . . B91D  47389  LBL WORD  code18.a65:33
NORM3. . . . . . . . . . . . . . B8DB  47323  LBL WORD  code17.a65:156
NORMAL . . . . . . . . . . . . . B8D7  47319  LBL WORD  code17.a65:153
NOSEC. . . . . . . . . . . . . . B0BA  45242  LBL WORD  code11.a65:40
NOTABR . . . . . . . . . . . . . AB13  43795  LBL WORD  code6.a65:146
NOTDIM . . . . . . . . . . . . . B296  45718  LBL WORD  code12.a65:129
NOTEVE . . . . . . . . . . . . . B159  45401  LBL WORD  code11.a65:127
NOTEVL . . . . . . . . . . . . . B128  45352  LBL WORD  code11.a65:101
NOTFDD . . . . . . . . . . . . . B261  45665  LBL WORD  code12.a65:98
NOTFL1 . . . . . . . . . . . . . B331  45873  LBL WORD  code13.a65:63
NOTFLT . . . . . . . . . . . . . B274  45684  LBL WORD  code12.a65:107
NOTFNS . . . . . . . . . . . . . B11D  45341  LBL WORD  code11.a65:93
NOTIT. . . . . . . . . . . . . . B109  45321  LBL WORD  code11.a65:81
NOTOL. . . . . . . . . . . . . . A753  42835  LBL WORD  code3.a65:94
NOTOP. . . . . . . . . . . . . . AED4  44756  LBL WORD  code9.a65:171
NOTQTI . . . . . . . . . . . . . ABCE  43982  LBL WORD  code7.a65:88
NOTSTR . . . . . . . . . . . . . B0C4  45252  LBL WORD  code11.a65:45
NOTTAB . . . . . . . . . . . . . A098  41112  LBL WORD  tokens.a65:80
NOTTK. . . . . . . . . . . . . .   A8    168  VAR BYTE  token2.a65:13
NOWGE1 . . . . . . . . . . . . . AC7D  44157  LBL WORD  code8.a65:25
NOWGET . . . . . . . . . . . . . AC72  44146  LBL WORD  code8.a65:19
NOWLIN . . . . . . . . . . . . . ACD1  44241  LBL WORD  code8.a65:64
NQPLOP . . . . . . . . . . . . . A71A  42778  LBL WORD  code3.a65:64
NREADY . . . . . . . . . . . . . E391  58257  LBL WORD  init.a65:13
NTHIS. . . . . . . . . . . . . . A5F5  42485  LBL WORD  code2.a65:67
NTHIS1 . . . . . . . . . . . . . A5F9  42489  LBL WORD  code2.a65:69
NUMINS . . . . . . . . . . . . . AC89  44169  LBL WORD  code8.a65:29
NUMLEV . . . . . . . . . . . . .   17     23  VAR BYTE  declare.a65:11
NXTCMP . . . . . . . . . . . . . B05B  45147  LBL WORD  code10.a65:173
NXTLGC . . . . . . . . . . . . . A99F  43423  LBL WORD  code5.a65:111
OKGOTO . . . . . . . . . . . . . A937  43319  LBL WORD  code5.a65:60
OKMSG. . . . . . . . . . . . . . A364  41828  LBL WORD  token2.a65:145
OKNORM . . . . . . . . . . . . . AFD1  45009  LBL WORD  code10.a65:107
OLDLIN . . . . . . . . . . . . .   3B     59  LBL BYTE  declare.a65:54
OLDOV. . . . . . . . . . . . . .   56     86  LBL BYTE  declare.a65:77
OLDTXT . . . . . . . . . . . . .   3D     61  LBL BYTE  declare.a65:55
OMERR. . . . . . . . . . . . . . A435  42037  LBL WORD  code1.a65:2
OMERR1 . . . . . . . . . . . . . B30B  45835  LBL WORD  code13.a65:42
ONEFUN . . . . . . . . . . . . .   B4    180  VAR BYTE  token2.a65:32
ONEON. . . . . . . . . . . . . . A79F  42911  LBL WORD  code3.a65:131
ONGLOP . . . . . . . . . . . . . A957  43351  LBL WORD  code5.a65:74
ONGLP1 . . . . . . . . . . . . . A95F  43359  LBL WORD  code5.a65:78
ONGOTO . . . . . . . . . . . . . A94B  43339  LBL WORD  code5.a65:68
ONGRTS . . . . . . . . . . . . . A96A  43370  LBL WORD  code5.a65:83
OPMASK . . . . . . . . . . . . .   4D     77  LBL BYTE  declare.a65:68
OPPTR. . . . . . . . . . . . . .   4B     75  LBL BYTE  declare.a65:67
OPTAB. . . . . . . . . . . . . . A080  41088  LBL WORD  tokens.a65:64
OROP . . . . . . . . . . . . . . AFE6  45030  LBL WORD  code10.a65:116
OUTCH. . . . . . . . . . . . . . E10C  57612  LBL WORD  code26.a65:17
OUTDO. . . . . . . . . . . . . . AB47  43847  LBL WORD  code7.a65:26
OUTQST . . . . . . . . . . . . . AB45  43845  LBL WORD  code7.a65:25
OUTRTS . . . . . . . . . . . . . AB4A  43850  LBL WORD  code7.a65:27
OUTSPC . . . . . . . . . . . . . AB3B  43835  LBL WORD  code7.a65:18
OVERR. . . . . . . . . . . . . . B97E  47486  LBL WORD  code18.a65:83
PANIC. . . . . . . . . . . . . . E37B  58235  LBL WORD  init.a65:2
PAOC . . . . . . . . . . . . . . E219  57881  LBL WORD  code26.a65:205
PAOC15 . . . . . . . . . . . . . E257  57943  LBL WORD  code26.a65:233
PAOC20 . . . . . . . . . . . . . E206  57862  LBL WORD  code26.a65:190
PAOC30 . . . . . . . . . . . . . E20E  57870  LBL WORD  code26.a65:198
PAOC32 . . . . . . . . . . . . . E211  57873  LBL WORD  code26.a65:199
PAOC40 . . . . . . . . . . . . . E216  57878  LBL WORD  code26.a65:201
PAOC5. . . . . . . . . . . . . . E23F  57919  LBL WORD  code26.a65:223
PAOC7. . . . . . . . . . . . . . E251  57937  LBL WORD  code26.a65:231
PAOCX. . . . . . . . . . . . . . E20D  57869  LBL WORD  code26.a65:194
PARCHK . . . . . . . . . . . . . AEF1  44785  LBL WORD  code9.a65:184
PATCHS . . . . . . . . . . . . . BF53  48979  LBL WORD  code23.a65:43
PEEK . . . . . . . . . . . . . . B80D  47117  LBL WORD  code17.a65:55
PI . . . . . . . . . . . . . . .   FF    255  VAR BYTE  declare.a65:10
PI2. . . . . . . . . . . . . . . E2E0  58080  LBL WORD  trig.a65:56
PIVAL. . . . . . . . . . . . . . AEA8  44712  LBL WORD  code9.a65:147
PLOOP. . . . . . . . . . . . . . A6F3  42739  LBL WORD  code3.a65:44
PLOOP1 . . . . . . . . . . . . . A700  42752  LBL WORD  code3.a65:50
PLOT . . . . . . . . . . . . . . FFF0  65520  VAR WORD  code26.a65:48
PLSV . . . . . . . . . . . . . . E1D4  57812  LBL WORD  code26.a65:158
PLSV7. . . . . . . . . . . . . . E200  57856  LBL WORD  code26.a65:185
PLUSTK . . . . . . . . . . . . .   AA    170  VAR BYTE  token2.a65:17
POKE . . . . . . . . . . . . . . B824  47140  LBL WORD  code17.a65:68
POKER. . . . . . . . . . . . . .   14     20  LBL BYTE  declare.a65:32
POLY . . . . . . . . . . . . . . E059  57433  LBL WORD  code25.a65:52
POLY1. . . . . . . . . . . . . . E05D  57437  LBL WORD  code25.a65:54
POLY2. . . . . . . . . . . . . . E070  57456  LBL WORD  code25.a65:64
POLY3. . . . . . . . . . . . . . E06C  57452  LBL WORD  code25.a65:62
POLY4. . . . . . . . . . . . . . E07D  57469  LBL WORD  code25.a65:71
POLYPT . . . . . . . . . . . . .   71    113  LBL BYTE  declare.a65:115
POLYX. . . . . . . . . . . . . . E043  57411  LBL WORD  code25.a65:43
POS. . . . . . . . . . . . . . . B39E  45982  LBL WORD  code13.a65:126
POSINT . . . . . . . . . . . . . B1B8  45496  LBL WORD  code12.a65:9
PPACH. . . . . . . . . . . . . . E4AD  58541  LBL WORD  init.a65:120
PPACH0 . . . . . . . . . . . . . E4B6  58550  LBL WORD  init.a65:126
PREAM. . . . . . . . . . . . . . B761  46945  LBL WORD  code16.a65:129
PRINT. . . . . . . . . . . . . . AAA0  43680  LBL WORD  code6.a65:85
PRINTC . . . . . . . . . . . . . AAA2  43682  LBL WORD  code6.a65:86
PRINTK . . . . . . . . . . . . .   99    153  VAR BYTE  tokens.a65:117
PRINTN . . . . . . . . . . . . . AA80  43648  LBL WORD  code6.a65:72
PRIT3. . . . . . . . . . . . . . A737  42807  LBL WORD  code3.a65:80
PRIT4. . . . . . . . . . . . . . A6EF  42735  LBL WORD  code3.a65:42
PRTRTS . . . . . . . . . . . . . AAE7  43751  LBL WORD  code6.a65:119
PTDORL . . . . . . . . . . . . . A09B  41115  LBL WORD  tokens.a65:82
PTRGET . . . . . . . . . . . . . B08B  45195  LBL WORD  code11.a65:20
PTRGT1 . . . . . . . . . . . . . B090  45200  LBL WORD  code11.a65:22
PTRGT2 . . . . . . . . . . . . . B092  45202  LBL WORD  code11.a65:23
PTRGT3 . . . . . . . . . . . . . B09F  45215  LBL WORD  code11.a65:28
PULMOR . . . . . . . . . . . . . B725  46885  LBL WORD  code16.a65:100
PULSTK . . . . . . . . . . . . . AE66  44646  LBL WORD  code9.a65:112
PUSHF. . . . . . . . . . . . . . AE38  44600  LBL WORD  code9.a65:85
PUSHF1 . . . . . . . . . . . . . AE33  44595  LBL WORD  code9.a65:83
PUTNEW . . . . . . . . . . . . . B4CA  46282  LBL WORD  code14.a65:134
PUTNW1 . . . . . . . . . . . . . B4D5  46293  LBL WORD  code14.a65:139
Q. . . . . . . . . . . . . . . .   7F    127  VAR BYTE  tokens.a65:84
QCHNUM . . . . . . . . . . . . . AE5D  44637  LBL WORD  code9.a65:108
QCOMP. . . . . . . . . . . . . . B061  45153  LBL WORD  code10.a65:177
QDATA. . . . . . . . . . . . . . AC41  44097  LBL WORD  code7.a65:140
QDECT1 . . . . . . . . . . . . . A4D7  42199  LBL WORD  code1.a65:82
QDOT . . . . . . . . . . . . . . AEAD  44717  LBL WORD  code9.a65:152
QINLIN . . . . . . . . . . . . . ABF9  44025  LBL WORD  code7.a65:105
QINT . . . . . . . . . . . . . . BC9B  48283  LBL WORD  code21.a65:2
QINT1. . . . . . . . . . . . . . BCBB  48315  LBL WORD  code21.a65:19
QINTGO . . . . . . . . . . . . . B1CE  45518  LBL WORD  code12.a65:19
QINTGR . . . . . . . . . . . . . A9C2  43458  LBL WORD  code5.a65:128
QINTRT . . . . . . . . . . . . . BCBA  48314  LBL WORD  code21.a65:18
QISHFT . . . . . . . . . . . . . BCAF  48303  LBL WORD  code21.a65:13
QNUM . . . . . . . . . . . . . .   80    128  LBL BYTE  declare.a65:121
QOP. . . . . . . . . . . . . . . AE58  44632  LBL WORD  code9.a65:105
QOPGO. . . . . . . . . . . . . . AE5B  44635  LBL WORD  code9.a65:107
QOPRTS . . . . . . . . . . . . . AE80  44672  LBL WORD  code9.a65:129
QPLOP. . . . . . . . . . . . . . A717  42775  LBL WORD  code3.a65:63
QPLUS. . . . . . . . . . . . . . BD06  48390  LBL WORD  code21.a65:58
QPREC. . . . . . . . . . . . . . ADF0  44528  LBL WORD  code9.a65:50
QPREC1 . . . . . . . . . . . . . AE19  44569  LBL WORD  code9.a65:72
QSETNR . . . . . . . . . . . . . E0BE  57534  LBL WORD  code25.a65:100
QSHFT. . . . . . . . . . . . . . BB4C  47948  LBL WORD  code19.a65:176
QSTATV . . . . . . . . . . . . . AF92  44946  LBL WORD  code10.a65:74
QSTAVR . . . . . . . . . . . . . B13B  45371  LBL WORD  code11.a65:110
QVARIA . . . . . . . . . . . . . AA3D  43581  LBL WORD  code6.a65:39
RADDC. . . . . . . . . . . . . . E092  57490  LBL WORD  code25.a65:80
RDBAS. . . . . . . . . . . . . . FFF3  65523  VAR WORD  code26.a65:44
RDTIM. . . . . . . . . . . . . . FFDE  65502  VAR WORD  code26.a65:28
READ . . . . . . . . . . . . . . AC06  44038  LBL WORD  code7.a65:110
READST . . . . . . . . . . . . . FFB7  65463  VAR WORD  code26.a65:38
READY. . . . . . . . . . . . . . E386  58246  LBL WORD  init.a65:8
READYX . . . . . . . . . . . . . A474  42100  LBL WORD  code1.a65:33
REARTS . . . . . . . . . . . . . A434  42036  LBL WORD  token2.a65:251
REASAV . . . . . . . . . . . . . A416  42006  LBL WORD  token2.a65:233
REASON . . . . . . . . . . . . . A408  41992  LBL WORD  token2.a65:225
REASTO . . . . . . . . . . . . . A421  42017  LBL WORD  token2.a65:239
REDDY. . . . . . . . . . . . . . A376  41846  LBL WORD  token2.a65:148
REM. . . . . . . . . . . . . . . A93B  43323  LBL WORD  code5.a65:62
REMER. . . . . . . . . . . . . . A919  43289  LBL WORD  code5.a65:46
REMN . . . . . . . . . . . . . . A909  43273  LBL WORD  code5.a65:38
REMRTS . . . . . . . . . . . . . A905  43269  LBL WORD  code5.a65:35
REMTK. . . . . . . . . . . . . .   8F    143  VAR BYTE  tokens.a65:106
RESCON . . . . . . . . . . . . . A5B8  42424  LBL WORD  code2.a65:36
RESCR1 . . . . . . . . . . . . . A72F  42799  LBL WORD  code3.a65:76
RESER. . . . . . . . . . . . . . A5B6  42422  LBL WORD  code2.a65:34
RESETC . . . . . . . . . . . . . AC71  44145  LBL WORD  code8.a65:18
RESFIN . . . . . . . . . . . . . A827  43047  LBL WORD  code4.a65:61
RESHO. . . . . . . . . . . . . .   26     38  LBL BYTE  declare.a65:40
RESLO. . . . . . . . . . . . . .   29     41  LBL BYTE  declare.a65:44
RESLST . . . . . . . . . . . . . A09E  41118  LBL WORD  tokens.a65:85
RESMO. . . . . . . . . . . . . .   28     40  LBL BYTE  declare.a65:43
RESMOH . . . . . . . . . . . . .   27     39  LBL BYTE  declare.a65:41
RESRCH . . . . . . . . . . . . . A72C  42796  LBL WORD  code3.a65:74
RESTOR . . . . . . . . . . . . . A81D  43037  LBL WORD  code4.a65:55
RETU1. . . . . . . . . . . . . . A8EB  43243  LBL WORD  code5.a65:19
RETURN . . . . . . . . . . . . . A8D2  43218  LBL WORD  code5.a65:7
RIGHTD . . . . . . . . . . . . . B72C  46892  LBL WORD  code16.a65:103
RLEFT. . . . . . . . . . . . . . B706  46854  LBL WORD  code16.a65:81
RLEFT1 . . . . . . . . . . . . . B70C  46860  LBL WORD  code16.a65:85
RLEFT2 . . . . . . . . . . . . . B70D  46861  LBL WORD  code16.a65:86
RLEFT3 . . . . . . . . . . . . . B70E  46862  LBL WORD  code16.a65:87
RMULC. . . . . . . . . . . . . . E08D  57485  LBL WORD  code25.a65:79
RND. . . . . . . . . . . . . . . E097  57495  LBL WORD  code25.a65:81
RND1 . . . . . . . . . . . . . . E0D3  57555  LBL WORD  code25.a65:109
RNDRTS . . . . . . . . . . . . . B946  47430  LBL WORD  code18.a65:54
RNDSHF . . . . . . . . . . . . . B938  47416  LBL WORD  code18.a65:47
RNDX . . . . . . . . . . . . . .   8B    139  LBL BYTE  declare.a65:123
ROLSHF . . . . . . . . . . . . . B9B0  47536  LBL WORD  code18.a65:108
ROMLOC . . . . . . . . . . . . . A000  40960  VAR WORD  declare.a65:3
ROUND. . . . . . . . . . . . . . BC1B  48155  LBL WORD  code20.a65:78
RUN. . . . . . . . . . . . . . . A871  43121  LBL WORD  code4.a65:99
RUNC . . . . . . . . . . . . . . A659  42585  LBL WORD  code2.a65:123
RUNC2. . . . . . . . . . . . . . A897  43159  LBL WORD  code4.a65:119
SAREG. . . . . . . . . . . . . . 030C    780  LBL WORD  declare.a65:138
SAVEIT . . . . . . . . . . . . . AA90  43664  LBL WORD  code6.a65:78
SAVQUO . . . . . . . . . . . . . BB3F  47935  LBL WORD  code19.a65:168
SCRATH . . . . . . . . . . . . . A642  42562  LBL WORD  code2.a65:110
SCRATK . . . . . . . . . . . . .   A2    162  VAR BYTE  tokens.a65:127
SCRTCH . . . . . . . . . . . . . A644  42564  LBL WORD  code2.a65:111
SETMSG . . . . . . . . . . . . . FF90  65424  VAR WORD  code26.a65:46
SETQUT . . . . . . . . . . . . . AC65  44133  LBL WORD  code8.a65:12
SETTIM . . . . . . . . . . . . . FFDB  65499  VAR WORD  code26.a65:27
SGN. . . . . . . . . . . . . . . BC39  48185  LBL WORD  code20.a65:93
SGNFLG . . . . . . . . . . . . .   67    103  LBL BYTE  declare.a65:102
SHFARG . . . . . . . . . . . . . BB4F  47951  LBL WORD  code19.a65:178
SHFTR2 . . . . . . . . . . . . . B985  47493  LBL WORD  code18.a65:86
SHFTR3 . . . . . . . . . . . . . B9A6  47526  LBL WORD  code18.a65:103
SHFTR4 . . . . . . . . . . . . . B9AC  47532  LBL WORD  code18.a65:106
SHFTRT . . . . . . . . . . . . . B9BA  47546  LBL WORD  code18.a65:114
SHIFTR . . . . . . . . . . . . . B999  47513  LBL WORD  code18.a65:96
SIGN . . . . . . . . . . . . . . BC2B  48171  LBL WORD  code20.a65:85
SIGNRT . . . . . . . . . . . . . BC38  48184  LBL WORD  code20.a65:92
SIN. . . . . . . . . . . . . . . E26B  57963  LBL WORD  trig.a65:5
SIN1 . . . . . . . . . . . . . . E29D  58013  LBL WORD  trig.a65:27
SIN2 . . . . . . . . . . . . . . E2A0  58016  LBL WORD  trig.a65:28
SIN3 . . . . . . . . . . . . . . E2AD  58029  LBL WORD  trig.a65:34
SINCON . . . . . . . . . . . . . E2EF  58095  LBL WORD  trig.a65:59
SIZE . . . . . . . . . . . . . .   55     85  LBL BYTE  declare.a65:76
SIZEOK . . . . . . . . . . . . . B65D  46685  LBL WORD  code15.a65:143
SNERR. . . . . . . . . . . . . . AF08  44808  LBL WORD  code9.a65:195
SNERR1 . . . . . . . . . . . . . A80B  43019  LBL WORD  code4.a65:48
SNERR2 . . . . . . . . . . . . . A8E8  43240  LBL WORD  code5.a65:18
SNERR3 . . . . . . . . . . . . . A953  43347  LBL WORD  code5.a65:72
SNERR4 . . . . . . . . . . . . . AB5F  43871  LBL WORD  code7.a65:38
SNERR5 . . . . . . . . . . . . . AE30  44592  LBL WORD  code9.a65:82
SNERRX . . . . . . . . . . . . . A80E  43022  LBL WORD  code4.a65:49
SNGFLT . . . . . . . . . . . . . B3A2  45986  LBL WORD  code13.a65:128
SPCTK. . . . . . . . . . . . . .   A6    166  VAR BYTE  token2.a65:9
SPREG. . . . . . . . . . . . . . 030F    783  LBL WORD  declare.a65:141
SQR. . . . . . . . . . . . . . . BF71  49009  LBL WORD  code23.a65:45
SQR05. . . . . . . . . . . . . . B9D6  47574  LBL WORD  code18.a65:122
SQR20. . . . . . . . . . . . . . B9DB  47579  LBL WORD  code18.a65:123
SQUEEZ . . . . . . . . . . . . . B936  47414  LBL WORD  code18.a65:46
ST2TXT . . . . . . . . . . . . . B7E2  47074  LBL WORD  code17.a65:35
STASGN . . . . . . . . . . . . . B056  45142  LBL WORD  code10.a65:170
STCURL . . . . . . . . . . . . . AB5B  43867  LBL WORD  code7.a65:36
STEPTK . . . . . . . . . . . . .   A9    169  VAR BYTE  token2.a65:15
STKEND . . . . . . . . . . . . . 01FB    507  VAR WORD  declare.a65:8
STKINI . . . . . . . . . . . . . A67A  42618  LBL WORD  code2.a65:138
STKRTS . . . . . . . . . . . . . A68D  42637  LBL WORD  code2.a65:151
STMDSP . . . . . . . . . . . . . A00C  40972  LBL WORD  tokens.a65:6
STOLD. . . . . . . . . . . . . . E000  57344  LBL WORD  code25.a65:10
STOLDX . . . . . . . . . . . . . BFFD  49149  LBL WORD  code24.a65:23
STOLOP . . . . . . . . . . . . . A522  42274  LBL WORD  code1.a65:120
STOML1 . . . . . . . . . . . . . B337  45879  LBL WORD  code13.a65:67
STOMLT . . . . . . . . . . . . . B27D  45693  LBL WORD  code12.a65:113
STOP . . . . . . . . . . . . . . A82F  43055  LBL WORD  code4.a65:65
STOPC. . . . . . . . . . . . . . A832  43058  LBL WORD  code4.a65:67
STORDO . . . . . . . . . . . . . B83C  47164  LBL WORD  code17.a65:79
STPEND . . . . . . . . . . . . . A841  43073  LBL WORD  code4.a65:75
STR1 . . . . . . . . . . . . . . A5E5  42469  LBL WORD  code2.a65:59
STRCMP . . . . . . . . . . . . . B02E  45102  LBL WORD  code10.a65:150
STRCP. . . . . . . . . . . . . . B4BF  46271  LBL WORD  code14.a65:129
STRD . . . . . . . . . . . . . . B465  46181  LBL WORD  code14.a65:82
STRDN2 . . . . . . . . . . . . . AC91  44177  LBL WORD  code8.a65:32
STRDON . . . . . . . . . . . . . AA9A  43674  LBL WORD  code6.a65:83
STREND . . . . . . . . . . . . .   31     49  LBL BYTE  declare.a65:49
STRFI1 . . . . . . . . . . . . . B4A8  46248  LBL WORD  code14.a65:116
STRFI2 . . . . . . . . . . . . . B4A9  46249  LBL WORD  code14.a65:117
STRFIN . . . . . . . . . . . . . B4A4  46244  LBL WORD  code14.a65:114
STRFRE . . . . . . . . . . . . . B50B  46347  LBL WORD  code14.a65:170
STRGET . . . . . . . . . . . . . B497  46231  LBL WORD  code14.a65:107
STRINI . . . . . . . . . . . . . B475  46197  LBL WORD  code14.a65:90
STRLIT . . . . . . . . . . . . . B487  46215  LBL WORD  code14.a65:99
STRLT2 . . . . . . . . . . . . . B48D  46221  LBL WORD  code14.a65:102
STRNAM . . . . . . . . . . . . . B0DB  45275  LBL WORD  code11.a65:57
STRNEX . . . . . . . . . . . . . E0E3  57571  LBL WORD  code25.a65:117
STRNG. . . . . . . . . . . . . . A5EE  42478  LBL WORD  code2.a65:63
STRNG1 . . . . . . . . . . . . .   6F    111  VAR BYTE  declare.a65:127
STRNG2 . . . . . . . . . . . . .   71    113  LBL BYTE  declare.a65:114
STRNGI . . . . . . . . . . . . .   6F    111  LBL BYTE  declare.a65:110
STROU2 . . . . . . . . . . . . . BDDA  48602  LBL WORD  code22.a65:16
STROUT . . . . . . . . . . . . . AB1E  43806  LBL WORD  code7.a65:4
STRPR2 . . . . . . . . . . . . . AB28  43816  LBL WORD  code7.a65:9
STRPRT . . . . . . . . . . . . . AB21  43809  LBL WORD  code7.a65:5
STRRTS . . . . . . . . . . . . . AF5C  44892  LBL WORD  code10.a65:46
STRSIZ . . . . . . . . . . . . .   03      3  VAR BYTE  declare.a65:12
STRSPA . . . . . . . . . . . . . B47D  46205  LBL WORD  code14.a65:94
STRST2 . . . . . . . . . . . . . B4B5  46261  LBL WORD  code14.a65:124
STRTX2 . . . . . . . . . . . . . AEC6  44742  LBL WORD  code9.a65:165
STRTXT . . . . . . . . . . . . . AEBD  44733  LBL WORD  code9.a65:160
STUFFH . . . . . . . . . . . . . A5C9  42441  LBL WORD  code2.a65:44
STXBUF . . . . . . . . . . . . . BEB2  48818  LBL WORD  code22.a65:124
STXFND . . . . . . . . . . . . . B0EF  45295  LBL WORD  code11.a65:67
STXFOR . . . . . . . . . . . . . AD27  44327  LBL WORD  code8.a65:94
STXTPT . . . . . . . . . . . . . A68E  42638  LBL WORD  code2.a65:152
SUBFLG . . . . . . . . . . . . .   10     16  LBL BYTE  declare.a65:27
SUBIT. . . . . . . . . . . . . . B8AF  47279  LBL WORD  code17.a65:135
SVAR . . . . . . . . . . . . . . B559  46425  LBL WORD  code15.a65:4
SVARGO . . . . . . . . . . . . . B561  46433  LBL WORD  code15.a65:8
SVARS. . . . . . . . . . . . . . B54D  46413  LBL WORD  code14.a65:204
SWAPLP . . . . . . . . . . . . . E01E  57374  LBL WORD  code25.a65:25
SXREG. . . . . . . . . . . . . . 030D    781  LBL WORD  declare.a65:139
SYNCHR . . . . . . . . . . . . . AEFF  44799  LBL WORD  code9.a65:191
SYREG. . . . . . . . . . . . . . 030E    782  LBL WORD  declare.a65:140
TABER. . . . . . . . . . . . . . AAF8  43768  LBL WORD  code6.a65:130
TABTK. . . . . . . . . . . . . .   A3    163  VAR BYTE  token2.a65:3
TAN. . . . . . . . . . . . . . . E2B4  58036  LBL WORD  trig.a65:37
TANSGN . . . . . . . . . . . . .   12     18  LBL BYTE  declare.a65:30
TEMPF1 . . . . . . . . . . . . .   57     87  LBL BYTE  declare.a65:78
TEMPF2 . . . . . . . . . . . . .   5C     92  LBL BYTE  declare.a65:82
TEMPF3 . . . . . . . . . . . . .   4E     78  LBL BYTE  declare.a65:70
TEMPPT . . . . . . . . . . . . .   16     22  LBL BYTE  declare.a65:34
TEMPST . . . . . . . . . . . . .   19     25  LBL BYTE  declare.a65:36
TENC . . . . . . . . . . . . . . BAF9  47865  LBL WORD  code19.a65:137
TENEXP . . . . . . . . . . . . .   5E     94  VAR BYTE  declare.a65:90
THENTK . . . . . . . . . . . . .   A7    167  VAR BYTE  token2.a65:11
TIMELP . . . . . . . . . . . . . A9ED  43501  LBL WORD  code6.a65:2
TIMEND . . . . . . . . . . . . . BF52  48978  LBL WORD  code23.a65:40
TIMNUM . . . . . . . . . . . . . AA1D  43549  LBL WORD  code6.a65:24
TIMSTR . . . . . . . . . . . . . B46F  46191  LBL WORD  code14.a65:87
TOTK . . . . . . . . . . . . . .   A4    164  VAR BYTE  token2.a65:5
TRMNO1 . . . . . . . . . . . . . AB62  43874  LBL WORD  code7.a65:39
TRMNOK . . . . . . . . . . . . . AB4D  43853  LBL WORD  code7.a65:29
TRMOK. . . . . . . . . . . . . . AC9D  44189  LBL WORD  code8.a65:37
TRMPOS . . . . . . . . . . . . .   09      9  LBL BYTE  declare.a65:19
TRYAG2 . . . . . . . . . . . . . B4F6  46326  LBL WORD  code14.a65:158
TRYAG3 . . . . . . . . . . . . . B501  46337  LBL WORD  code14.a65:165
TRYAGN . . . . . . . . . . . . . AD0C  44300  LBL WORD  code8.a65:87
TRYMOR . . . . . . . . . . . . . A412  42002  LBL WORD  token2.a65:230
TRYOFF . . . . . . . . . . . . . BAC4  47812  LBL WORD  code19.a65:110
TSTDUN . . . . . . . . . . . . . A6E6  42726  LBL WORD  code3.a65:38
TSTOP. . . . . . . . . . . . . . ADB8  44472  LBL WORD  code9.a65:22
TSTR10 . . . . . . . . . . . . . AF27  44839  LBL WORD  code10.a65:20
TSTROM . . . . . . . . . . . . . AF14  44820  LBL WORD  code10.a65:8
TURNON . . . . . . . . . . . . . B0D4  45268  LBL WORD  code11.a65:53
TVAR . . . . . . . . . . . . . . B544  46404  LBL WORD  code14.a65:200
TWOPI. . . . . . . . . . . . . . E2E5  58085  LBL WORD  trig.a65:57
TXTPTR . . . . . . . . . . . . .   7A    122  LBL BYTE  declare.a65:120
TXTTAB . . . . . . . . . . . . .   2B     43  LBL BYTE  declare.a65:46
TYPLIN . . . . . . . . . . . . . A6E8  42728  LBL WORD  code3.a65:39
UMLCNT . . . . . . . . . . . . . B378  45944  LBL WORD  code13.a65:107
UMLRTS . . . . . . . . . . . . . B37C  45948  LBL WORD  code13.a65:109
UMULT. . . . . . . . . . . . . . B34C  45900  LBL WORD  code13.a65:79
UMULTC . . . . . . . . . . . . . B35F  45919  LBL WORD  code13.a65:89
UMULTD . . . . . . . . . . . . . B355  45909  LBL WORD  code13.a65:84
UNPRTS . . . . . . . . . . . . . AE82  44674  LBL WORD  code9.a65:130
UNPSTK . . . . . . . . . . . . . AE64  44644  LBL WORD  code9.a65:111
USEDEF . . . . . . . . . . . . . E40E  58382  LBL WORD  init.a65:74
USERR. . . . . . . . . . . . . . A8E3  43235  LBL WORD  code5.a65:16
USRLOC . . . . . . . . . . . . . A058  41048  LBL WORD  tokens.a65:44
USRPOK . . . . . . . . . . . . . 0310    784  LBL WORD  declare.a65:142
VAL. . . . . . . . . . . . . . . B7AD  47021  LBL WORD  code17.a65:8
VAL2 . . . . . . . . . . . . . . B7CD  47053  LBL WORD  code17.a65:24
VALRTS . . . . . . . . . . . . . B7EA  47082  LBL WORD  code17.a65:39
VALTYP . . . . . . . . . . . . .   0D     13  LBL BYTE  declare.a65:23
VAREND . . . . . . . . . . . . . ACDF  44255  LBL WORD  code8.a65:70
VARNAM . . . . . . . . . . . . .   45     69  LBL BYTE  declare.a65:59
VAROK. . . . . . . . . . . . . . B143  45379  LBL WORD  code11.a65:115
VARPNT . . . . . . . . . . . . .   47     71  LBL BYTE  declare.a65:61
VARTAB . . . . . . . . . . . . .   2D     45  LBL BYTE  declare.a65:47
VARTXT . . . . . . . . . . . . .   4B     75  LBL BYTE  declare.a65:66
VARY0. . . . . . . . . . . . . . ACEA  44266  LBL WORD  code8.a65:75
VERCK. . . . . . . . . . . . . .   0A     10  LBL BYTE  declare.a65:20
WAITER . . . . . . . . . . . . . B840  47168  LBL WORD  code17.a65:81
WORDS. . . . . . . . . . . . . . E460  58464  LBL WORD  init.a65:114
XSPAC. . . . . . . . . . . . . . AB0F  43791  LBL WORD  code6.a65:143
XSPAC1 . . . . . . . . . . . . . AB19  43801  LBL WORD  code7.a65:2
XSPAC2 . . . . . . . . . . . . . AB10  43792  LBL WORD  code6.a65:144
ZEREMV . . . . . . . . . . . . . BADA  47834  LBL WORD  code19.a65:121
ZERITA . . . . . . . . . . . . . B2C8  45768  LBL WORD  code13.a65:4
ZERO . . . . . . . . . . . . . . BF13  48915  LBL WORD  code23.a65:26
ZEROF1 . . . . . . . . . . . . . B8F9  47353  LBL WORD  code18.a65:15
ZEROFC . . . . . . . . . . . . . B8F7  47351  LBL WORD  code18.a65:14
ZEROML . . . . . . . . . . . . . B8FB  47355  LBL WORD  code18.a65:16
ZERRTS . . . . . . . . . . . . . B848  47176  LBL WORD  code17.a65:85
ZZ1. . . . . . . . . . . . . . . 01FF    511  VAR WORD  code2.a65:78
ZZ2. . . . . . . . . . . . . . . 0201    513  VAR WORD  code7.a65:60
ZZ3. . . . . . . . . . . . . . . 0202    514  VAR WORD  code7.a65:62
ZZ4. . . . . . . . . . . . . . . 01FF    511  VAR WORD  code7.a65:136
ZZ5. . . . . . . . . . . . . . . 01FF    511  VAR WORD  code6.a65:106
ZZ6. . . . . . . . . . . . . . . AF2A  44842  VAR WORD  code11.a65:95


S Y M B O L S   B Y   V A L U E

NAME                              HEX    DEC  SYM TYPE  WHERE
BLANK0 . . . . . . . . . . . . .   00      0  LBL BYTE  declare.a65:13
ADDPRC . . . . . . . . . . . . .   01      1  VAR BYTE  declare.a65:2
ADDPR2 . . . . . . . . . . . . .   02      2  VAR BYTE  code18.a65:9
BUFPAG . . . . . . . . . . . . .   02      2  VAR BYTE  declare.a65:6
STRSIZ . . . . . . . . . . . . .   03      3  VAR BYTE  declare.a65:12
ADRAY1 . . . . . . . . . . . . .   03      3  LBL BYTE  declare.a65:14
ADDPR4 . . . . . . . . . . . . .   04      4  VAR BYTE  code18.a65:10
ADRAY2 . . . . . . . . . . . . .   05      5  LBL BYTE  declare.a65:15
CHARAC . . . . . . . . . . . . .   07      7  LBL BYTE  declare.a65:17
INTEGR . . . . . . . . . . . . .   07      7  LBL BYTE  declare.a65:16
ENDCHR . . . . . . . . . . . . .   08      8  LBL BYTE  declare.a65:18
ADDPR8 . . . . . . . . . . . . .   08      8  VAR BYTE  code18.a65:11
TRMPOS . . . . . . . . . . . . .   09      9  LBL BYTE  declare.a65:19
VERCK. . . . . . . . . . . . . .   0A     10  LBL BYTE  declare.a65:20
CLMWID . . . . . . . . . . . . .   0A     10  VAR BYTE  declare.a65:9
ERRNF. . . . . . . . . . . . . .   0A     10  VAR BYTE  token2.a65:70
COUNT. . . . . . . . . . . . . .   0B     11  LBL BYTE  declare.a65:21
ERRSN. . . . . . . . . . . . . .   0B     11  VAR BYTE  token2.a65:72
ERRRG. . . . . . . . . . . . . .   0C     12  VAR BYTE  token2.a65:74
DIMFLG . . . . . . . . . . . . .   0C     12  LBL BYTE  declare.a65:22
ERROD. . . . . . . . . . . . . .   0D     13  VAR BYTE  token2.a65:76
VALTYP . . . . . . . . . . . . .   0D     13  LBL BYTE  declare.a65:23
INTFLG . . . . . . . . . . . . .   0E     14  LBL BYTE  declare.a65:24
ERRFC. . . . . . . . . . . . . .   0E     14  VAR BYTE  token2.a65:78
DORES. . . . . . . . . . . . . .   0F     15  LBL BYTE  declare.a65:26
ERROV. . . . . . . . . . . . . .   0F     15  VAR BYTE  token2.a65:80
GARBFL . . . . . . . . . . . . .   0F     15  LBL BYTE  declare.a65:25
SUBFLG . . . . . . . . . . . . .   10     16  LBL BYTE  declare.a65:27
ERROM. . . . . . . . . . . . . .   10     16  VAR BYTE  token2.a65:82
INPFLG . . . . . . . . . . . . .   11     17  LBL BYTE  declare.a65:28
ERRUS. . . . . . . . . . . . . .   11     17  VAR BYTE  token2.a65:85
TANSGN . . . . . . . . . . . . .   12     18  LBL BYTE  declare.a65:30
ERRBS. . . . . . . . . . . . . .   12     18  VAR BYTE  token2.a65:87
DOMASK . . . . . . . . . . . . .   12     18  LBL BYTE  declare.a65:29
FORSIZ . . . . . . . . . . . . .   12     18  VAR BYTE  token2.a65:153
CHANNL . . . . . . . . . . . . .   13     19  LBL BYTE  declare.a65:31
ERRDD. . . . . . . . . . . . . .   13     19  VAR BYTE  token2.a65:89
POKER. . . . . . . . . . . . . .   14     20  LBL BYTE  declare.a65:32
LINNUM . . . . . . . . . . . . .   14     20  LBL BYTE  declare.a65:33
ERRDVO . . . . . . . . . . . . .   14     20  VAR BYTE  token2.a65:91
ERRID. . . . . . . . . . . . . .   15     21  VAR BYTE  token2.a65:93
TEMPPT . . . . . . . . . . . . .   16     22  LBL BYTE  declare.a65:34
ERRTM. . . . . . . . . . . . . .   16     22  VAR BYTE  token2.a65:95
LASTPT . . . . . . . . . . . . .   17     23  LBL BYTE  declare.a65:35
ERRLS. . . . . . . . . . . . . .   17     23  VAR BYTE  token2.a65:97
NUMLEV . . . . . . . . . . . . .   17     23  VAR BYTE  declare.a65:11
ERRBD. . . . . . . . . . . . . .   18     24  VAR BYTE  token2.a65:99
TEMPST . . . . . . . . . . . . .   19     25  LBL BYTE  declare.a65:36
ERRST. . . . . . . . . . . . . .   19     25  VAR BYTE  token2.a65:101
ERRCN. . . . . . . . . . . . . .   1A     26  VAR BYTE  token2.a65:103
ERRUF. . . . . . . . . . . . . .   1B     27  VAR BYTE  token2.a65:105
ERVFY. . . . . . . . . . . . . .   1C     28  VAR BYTE  token2.a65:107
ERLOAD . . . . . . . . . . . . .   1D     29  VAR BYTE  token2.a65:109
ERBRK. . . . . . . . . . . . . .   1E     30  VAR BYTE  token2.a65:149
NCMPOS . . . . . . . . . . . . .   1E     30  VAR BYTE  code6.a65:123
INDEX. . . . . . . . . . . . . .   22     34  LBL BYTE  declare.a65:37
INDEX1 . . . . . . . . . . . . .   22     34  LBL BYTE  declare.a65:38
INDEX2 . . . . . . . . . . . . .   24     36  LBL BYTE  declare.a65:39
RESHO. . . . . . . . . . . . . .   26     38  LBL BYTE  declare.a65:40
RESMOH . . . . . . . . . . . . .   27     39  LBL BYTE  declare.a65:41
RESMO. . . . . . . . . . . . . .   28     40  LBL BYTE  declare.a65:43
ADDEND . . . . . . . . . . . . .   28     40  LBL BYTE  declare.a65:42
LINLEN . . . . . . . . . . . . .   28     40  VAR BYTE  declare.a65:4
RESLO. . . . . . . . . . . . . .   29     41  LBL BYTE  declare.a65:44
TXTTAB . . . . . . . . . . . . .   2B     43  LBL BYTE  declare.a65:46
VARTAB . . . . . . . . . . . . .   2D     45  LBL BYTE  declare.a65:47
ARYTAB . . . . . . . . . . . . .   2F     47  LBL BYTE  declare.a65:48
STREND . . . . . . . . . . . . .   31     49  LBL BYTE  declare.a65:49
FRETOP . . . . . . . . . . . . .   33     51  LBL BYTE  declare.a65:50
FRESPC . . . . . . . . . . . . .   35     53  LBL BYTE  declare.a65:51
MEMSIZ . . . . . . . . . . . . .   37     55  LBL BYTE  declare.a65:52
CURLIN . . . . . . . . . . . . .   39     57  LBL BYTE  declare.a65:53
OLDLIN . . . . . . . . . . . . .   3B     59  LBL BYTE  declare.a65:54
OLDTXT . . . . . . . . . . . . .   3D     61  LBL BYTE  declare.a65:55
DATLIN . . . . . . . . . . . . .   3F     63  LBL BYTE  declare.a65:56
DATPTR . . . . . . . . . . . . .   41     65  LBL BYTE  declare.a65:57
INPPTR . . . . . . . . . . . . .   43     67  LBL BYTE  declare.a65:58
VARNAM . . . . . . . . . . . . .   45     69  LBL BYTE  declare.a65:59
FDECPT . . . . . . . . . . . . .   47     71  LBL BYTE  declare.a65:60
VARPNT . . . . . . . . . . . . .   47     71  LBL BYTE  declare.a65:61
LSTPNT . . . . . . . . . . . . .   49     73  LBL BYTE  declare.a65:62
ANDMSK . . . . . . . . . . . . .   49     73  LBL BYTE  declare.a65:63
FORPNT . . . . . . . . . . . . .   49     73  LBL BYTE  declare.a65:64
EORMSK . . . . . . . . . . . . .   4A     74  VAR BYTE  declare.a65:65
VARTXT . . . . . . . . . . . . .   4B     75  LBL BYTE  declare.a65:66
OPPTR. . . . . . . . . . . . . .   4B     75  LBL BYTE  declare.a65:67
OPMASK . . . . . . . . . . . . .   4D     77  LBL BYTE  declare.a65:68
GRBPNT . . . . . . . . . . . . .   4E     78  LBL BYTE  declare.a65:69
TEMPF3 . . . . . . . . . . . . .   4E     78  LBL BYTE  declare.a65:70
DEFPNT . . . . . . . . . . . . .   4E     78  LBL BYTE  declare.a65:71
DSCPNT . . . . . . . . . . . . .   50     80  LBL BYTE  declare.a65:72
FOUR6. . . . . . . . . . . . . .   53     83  LBL BYTE  declare.a65:74
JMPER. . . . . . . . . . . . . .   54     84  LBL BYTE  declare.a65:75
SIZE . . . . . . . . . . . . . .   55     85  LBL BYTE  declare.a65:76
OLDOV. . . . . . . . . . . . . .   56     86  LBL BYTE  declare.a65:77
TEMPF1 . . . . . . . . . . . . .   57     87  LBL BYTE  declare.a65:78
ARYPNT . . . . . . . . . . . . .   58     88  LBL BYTE  declare.a65:79
HIGHDS . . . . . . . . . . . . .   58     88  LBL BYTE  declare.a65:80
BUFLEN . . . . . . . . . . . . .   59     89  VAR BYTE  declare.a65:5
HIGHTR . . . . . . . . . . . . .   5A     90  LBL BYTE  declare.a65:81
TEMPF2 . . . . . . . . . . . . .   5C     92  LBL BYTE  declare.a65:82
DECCNT . . . . . . . . . . . . .   5D     93  LBL BYTE  declare.a65:84
LOWDS. . . . . . . . . . . . . .   5D     93  LBL BYTE  declare.a65:85
TENEXP . . . . . . . . . . . . .   5E     94  VAR BYTE  declare.a65:90
DPTFLG . . . . . . . . . . . . .   5F     95  LBL BYTE  declare.a65:87
GRBTOP . . . . . . . . . . . . .   5F     95  LBL BYTE  declare.a65:86
LOWTR. . . . . . . . . . . . . .   5F     95  LBL BYTE  declare.a65:88
EXPSGN . . . . . . . . . . . . .   60     96  LBL BYTE  declare.a65:89
EPSGN. . . . . . . . . . . . . .   60     96  VAR BYTE  declare.a65:91
DSCTMP . . . . . . . . . . . . .   61     97  LBL BYTE  declare.a65:92
FAC. . . . . . . . . . . . . . .   61     97  LBL BYTE  declare.a65:93
FACEXP . . . . . . . . . . . . .   61     97  LBL BYTE  declare.a65:94
FACHO. . . . . . . . . . . . . .   62     98  LBL BYTE  declare.a65:95
FACMOH . . . . . . . . . . . . .   63     99  LBL BYTE  declare.a65:96
FACMO. . . . . . . . . . . . . .   64    100  LBL BYTE  declare.a65:98
INDICE . . . . . . . . . . . . .   64    100  LBL BYTE  declare.a65:97
FACLO. . . . . . . . . . . . . .   65    101  LBL BYTE  declare.a65:99
FACSGN . . . . . . . . . . . . .   66    102  LBL BYTE  declare.a65:100
SGNFLG . . . . . . . . . . . . .   67    103  LBL BYTE  declare.a65:102
DEGREE . . . . . . . . . . . . .   67    103  LBL BYTE  declare.a65:101
BITS . . . . . . . . . . . . . .   68    104  LBL BYTE  declare.a65:103
ARGEXP . . . . . . . . . . . . .   69    105  LBL BYTE  declare.a65:104
ARGHO. . . . . . . . . . . . . .   6A    106  LBL BYTE  declare.a65:105
ARGMOH . . . . . . . . . . . . .   6B    107  LBL BYTE  declare.a65:106
ARGMO. . . . . . . . . . . . . .   6C    108  LBL BYTE  declare.a65:107
ARGLO. . . . . . . . . . . . . .   6D    109  LBL BYTE  declare.a65:108
ARGSGN . . . . . . . . . . . . .   6E    110  LBL BYTE  declare.a65:109
STRNGI . . . . . . . . . . . . .   6F    111  LBL BYTE  declare.a65:110
STRNG1 . . . . . . . . . . . . .   6F    111  VAR BYTE  declare.a65:127
ARISGN . . . . . . . . . . . . .   6F    111  LBL BYTE  declare.a65:111
FACOV. . . . . . . . . . . . . .   70    112  LBL BYTE  declare.a65:112
FBUFPT . . . . . . . . . . . . .   71    113  LBL BYTE  declare.a65:117
BUFPTR . . . . . . . . . . . . .   71    113  LBL BYTE  declare.a65:113
STRNG2 . . . . . . . . . . . . .   71    113  LBL BYTE  declare.a65:114
CURTOL . . . . . . . . . . . . .   71    113  LBL BYTE  declare.a65:116
POLYPT . . . . . . . . . . . . .   71    113  LBL BYTE  declare.a65:115
CHRGET . . . . . . . . . . . . .   73    115  LBL BYTE  declare.a65:118
CHRGOT . . . . . . . . . . . . .   79    121  LBL BYTE  declare.a65:119
TXTPTR . . . . . . . . . . . . .   7A    122  LBL BYTE  declare.a65:120
Q. . . . . . . . . . . . . . . .   7F    127  VAR BYTE  tokens.a65:84
ENDTK. . . . . . . . . . . . . .   80    128  VAR BYTE  tokens.a65:86
QNUM . . . . . . . . . . . . . .   80    128  LBL BYTE  declare.a65:121
FORTK. . . . . . . . . . . . . .   81    129  VAR BYTE  tokens.a65:88
DATATK . . . . . . . . . . . . .   83    131  VAR BYTE  tokens.a65:91
GOTOTK . . . . . . . . . . . . .   89    137  VAR BYTE  tokens.a65:98
CHRRTS . . . . . . . . . . . . .   8A    138  LBL BYTE  declare.a65:122
RNDX . . . . . . . . . . . . . .   8B    139  LBL BYTE  declare.a65:123
GOSUTK . . . . . . . . . . . . .   8D    141  VAR BYTE  tokens.a65:103
REMTK. . . . . . . . . . . . . .   8F    143  VAR BYTE  tokens.a65:106
PRINTK . . . . . . . . . . . . .   99    153  VAR BYTE  tokens.a65:117
SCRATK . . . . . . . . . . . . .   A2    162  VAR BYTE  tokens.a65:127
TABTK. . . . . . . . . . . . . .   A3    163  VAR BYTE  token2.a65:3
TOTK . . . . . . . . . . . . . .   A4    164  VAR BYTE  token2.a65:5
FNTK . . . . . . . . . . . . . .   A5    165  VAR BYTE  token2.a65:7
SPCTK. . . . . . . . . . . . . .   A6    166  VAR BYTE  token2.a65:9
THENTK . . . . . . . . . . . . .   A7    167  VAR BYTE  token2.a65:11
NOTTK. . . . . . . . . . . . . .   A8    168  VAR BYTE  token2.a65:13
STEPTK . . . . . . . . . . . . .   A9    169  VAR BYTE  token2.a65:15
PLUSTK . . . . . . . . . . . . .   AA    170  VAR BYTE  token2.a65:17
MINUTK . . . . . . . . . . . . .   AB    171  VAR BYTE  token2.a65:19
GREATK . . . . . . . . . . . . .   B1    177  VAR BYTE  token2.a65:26
EQULTK . . . . . . . . . . . . .   B2    178  VAR BYTE  token2.a65:28
LESSTK . . . . . . . . . . . . .   B3    179  VAR BYTE  token2.a65:30
ONEFUN . . . . . . . . . . . . .   B4    180  VAR BYTE  token2.a65:32
LASNUM . . . . . . . . . . . . .   C7    199  VAR BYTE  token2.a65:52
GOTK . . . . . . . . . . . . . .   CB    203  VAR BYTE  token2.a65:57
LOFBUF . . . . . . . . . . . . .   FF    255  LBL BYTE  declare.a65:125
PI . . . . . . . . . . . . . . .   FF    255  VAR BYTE  declare.a65:10
FBUFFR . . . . . . . . . . . . . 0100    256  LBL WORD  declare.a65:126
STKEND . . . . . . . . . . . . . 01FB    507  VAR WORD  declare.a65:8
ZZ1. . . . . . . . . . . . . . . 01FF    511  VAR WORD  code2.a65:78
ZZ5. . . . . . . . . . . . . . . 01FF    511  VAR WORD  code6.a65:106
ZZ4. . . . . . . . . . . . . . . 01FF    511  VAR WORD  code7.a65:136
BUF. . . . . . . . . . . . . . . 0200    512  VAR WORD  declare.a65:7
BUFOFS . . . . . . . . . . . . . 0200    512  VAR WORD  code2.a65:2
ZZ2. . . . . . . . . . . . . . . 0201    513  VAR WORD  code7.a65:60
ZZ3. . . . . . . . . . . . . . . 0202    514  VAR WORD  code7.a65:62
IERROR . . . . . . . . . . . . . 0300    768  LBL WORD  declare.a65:130
IMAIN. . . . . . . . . . . . . . 0302    770  LBL WORD  declare.a65:131
ICRNCH . . . . . . . . . . . . . 0304    772  LBL WORD  declare.a65:132
IQPLOP . . . . . . . . . . . . . 0306    774  LBL WORD  declare.a65:133
IGONE. . . . . . . . . . . . . . 0308    776  LBL WORD  declare.a65:134
IEVAL. . . . . . . . . . . . . . 030A    778  LBL WORD  declare.a65:135
SAREG. . . . . . . . . . . . . . 030C    780  LBL WORD  declare.a65:138
SXREG. . . . . . . . . . . . . . 030D    781  LBL WORD  declare.a65:139
SYREG. . . . . . . . . . . . . . 030E    782  LBL WORD  declare.a65:140
SPREG. . . . . . . . . . . . . . 030F    783  LBL WORD  declare.a65:141
USRPOK . . . . . . . . . . . . . 0310    784  LBL WORD  declare.a65:142
ROMLOC . . . . . . . . . . . . . A000  40960  VAR WORD  declare.a65:3
STMDSP . . . . . . . . . . . . . A00C  40972  LBL WORD  tokens.a65:6
FUNDSP . . . . . . . . . . . . . A052  41042  LBL WORD  tokens.a65:41
USRLOC . . . . . . . . . . . . . A058  41048  LBL WORD  tokens.a65:44
OPTAB. . . . . . . . . . . . . . A080  41088  LBL WORD  tokens.a65:64
NEGTAB . . . . . . . . . . . . . A095  41109  LBL WORD  tokens.a65:78
NOTTAB . . . . . . . . . . . . . A098  41112  LBL WORD  tokens.a65:80
PTDORL . . . . . . . . . . . . . A09B  41115  LBL WORD  tokens.a65:82
RESLST . . . . . . . . . . . . . A09E  41118  LBL WORD  tokens.a65:85
ERR01. . . . . . . . . . . . . . A19E  41374  LBL WORD  token2.a65:60
ERR02. . . . . . . . . . . . . . A1AC  41388  LBL WORD  token2.a65:61
ERR03. . . . . . . . . . . . . . A1B5  41397  LBL WORD  token2.a65:62
ERR04. . . . . . . . . . . . . . A1C2  41410  LBL WORD  token2.a65:63
ERR05. . . . . . . . . . . . . . A1D0  41424  LBL WORD  token2.a65:64
ERR06. . . . . . . . . . . . . . A1E2  41442  LBL WORD  token2.a65:65
ERR07. . . . . . . . . . . . . . A1F0  41456  LBL WORD  token2.a65:66
ERR08. . . . . . . . . . . . . . A1FF  41471  LBL WORD  token2.a65:67
ERR09. . . . . . . . . . . . . . A210  41488  LBL WORD  token2.a65:68
ERR10. . . . . . . . . . . . . . A225  41509  LBL WORD  token2.a65:69
ERR11. . . . . . . . . . . . . . A235  41525  LBL WORD  token2.a65:71
ERR12. . . . . . . . . . . . . . A23B  41531  LBL WORD  token2.a65:73
ERR13. . . . . . . . . . . . . . A24F  41551  LBL WORD  token2.a65:75
ERR14. . . . . . . . . . . . . . A25A  41562  LBL WORD  token2.a65:77
ERR15. . . . . . . . . . . . . . A26A  41578  LBL WORD  token2.a65:79
ERR16. . . . . . . . . . . . . . A272  41586  LBL WORD  token2.a65:81
ERR17. . . . . . . . . . . . . . A27F  41599  LBL WORD  token2.a65:83
ERR18. . . . . . . . . . . . . . A290  41616  LBL WORD  token2.a65:86
ERR19. . . . . . . . . . . . . . A29D  41629  LBL WORD  token2.a65:88
ERR20. . . . . . . . . . . . . . A2AA  41642  LBL WORD  token2.a65:90
ERR21. . . . . . . . . . . . . . A2BA  41658  LBL WORD  token2.a65:92
ERR22. . . . . . . . . . . . . . A2C8  41672  LBL WORD  token2.a65:94
ERR23. . . . . . . . . . . . . . A2D5  41685  LBL WORD  token2.a65:96
ERR24. . . . . . . . . . . . . . A2E4  41700  LBL WORD  token2.a65:98
ERR25. . . . . . . . . . . . . . A2ED  41709  LBL WORD  token2.a65:100
ERR26. . . . . . . . . . . . . . A300  41728  LBL WORD  token2.a65:102
ERR27. . . . . . . . . . . . . . A30E  41742  LBL WORD  token2.a65:104
ERR28. . . . . . . . . . . . . . A31E  41758  LBL WORD  token2.a65:106
ERR29. . . . . . . . . . . . . . A324  41764  LBL WORD  token2.a65:108
ERRTAB . . . . . . . . . . . . . A328  41768  LBL WORD  token2.a65:114
OKMSG. . . . . . . . . . . . . . A364  41828  LBL WORD  token2.a65:145
ERR. . . . . . . . . . . . . . . A369  41833  LBL WORD  token2.a65:146
INTXT. . . . . . . . . . . . . . A371  41841  LBL WORD  token2.a65:147
REDDY. . . . . . . . . . . . . . A376  41846  LBL WORD  token2.a65:148
BRKTXT . . . . . . . . . . . . . A381  41857  LBL WORD  token2.a65:150
ERR30. . . . . . . . . . . . . . A383  41859  LBL WORD  token2.a65:151
FNDFOR . . . . . . . . . . . . . A38A  41866  LBL WORD  token2.a65:154
FFLOOP . . . . . . . . . . . . . A38F  41871  LBL WORD  token2.a65:159
CMPFOR . . . . . . . . . . . . . A3A4  41892  LBL WORD  token2.a65:168
ADDFRS . . . . . . . . . . . . . A3B0  41904  LBL WORD  token2.a65:173
FFRTS. . . . . . . . . . . . . . A3B7  41911  LBL WORD  token2.a65:178
BLTU . . . . . . . . . . . . . . A3B8  41912  LBL WORD  token2.a65:179
BLTUC. . . . . . . . . . . . . . A3BF  41919  LBL WORD  token2.a65:182
BLT1 . . . . . . . . . . . . . . A3DC  41948  LBL WORD  token2.a65:200
BLTLP. . . . . . . . . . . . . . A3E8  41960  LBL WORD  token2.a65:206
MOREN1 . . . . . . . . . . . . . A3EC  41964  LBL WORD  token2.a65:208
DECBLT . . . . . . . . . . . . . A3F3  41971  LBL WORD  token2.a65:212
GETSTK . . . . . . . . . . . . . A3FB  41979  LBL WORD  token2.a65:217
REASON . . . . . . . . . . . . . A408  41992  LBL WORD  token2.a65:225
TRYMOR . . . . . . . . . . . . . A412  42002  LBL WORD  token2.a65:230
REASAV . . . . . . . . . . . . . A416  42006  LBL WORD  token2.a65:233
REASTO . . . . . . . . . . . . . A421  42017  LBL WORD  token2.a65:239
REARTS . . . . . . . . . . . . . A434  42036  LBL WORD  token2.a65:251
OMERR. . . . . . . . . . . . . . A435  42037  LBL WORD  code1.a65:2
ERROR. . . . . . . . . . . . . . A437  42039  LBL WORD  code1.a65:3
NERROX . . . . . . . . . . . . . A43A  42042  LBL WORD  code1.a65:4
ERRCRD . . . . . . . . . . . . . A44E  42062  LBL WORD  code1.a65:14
GETERR . . . . . . . . . . . . . A456  42070  LBL WORD  code1.a65:17
ERRFIN . . . . . . . . . . . . . A469  42089  LBL WORD  code1.a65:27
READYX . . . . . . . . . . . . . A474  42100  LBL WORD  code1.a65:33
MAIN . . . . . . . . . . . . . . A480  42112  LBL WORD  code1.a65:39
NMAIN. . . . . . . . . . . . . . A483  42115  LBL WORD  code1.a65:40
MAIN1. . . . . . . . . . . . . . A49C  42140  LBL WORD  code1.a65:51
QDECT1 . . . . . . . . . . . . . A4D7  42199  LBL WORD  code1.a65:82
MLOOP. . . . . . . . . . . . . . A4DF  42207  LBL WORD  code1.a65:87
NODEL. . . . . . . . . . . . . . A4ED  42221  LBL WORD  code1.a65:95
NODELC . . . . . . . . . . . . . A508  42248  LBL WORD  code1.a65:108
STOLOP . . . . . . . . . . . . . A522  42274  LBL WORD  code1.a65:120
FINI . . . . . . . . . . . . . . A52A  42282  LBL WORD  code1.a65:124
LNKPRG . . . . . . . . . . . . . A533  42291  LBL WORD  code1.a65:127
CHEAD. . . . . . . . . . . . . . A53C  42300  LBL WORD  code1.a65:132
CZLOOP . . . . . . . . . . . . . A544  42308  LBL WORD  code1.a65:136
LNKRTS . . . . . . . . . . . . . A55F  42335  LBL WORD  code1.a65:152
INLIN. . . . . . . . . . . . . . A560  42336  LBL WORD  code1.a65:158
INLINC . . . . . . . . . . . . . A562  42338  LBL WORD  code1.a65:160
FININ1 . . . . . . . . . . . . . A576  42358  LBL WORD  code1.a65:172
CRUNCH . . . . . . . . . . . . . A579  42361  LBL WORD  code2.a65:3
NCRNCH . . . . . . . . . . . . . A57C  42364  LBL WORD  code2.a65:4
KLOOP. . . . . . . . . . . . . . A582  42370  LBL WORD  code2.a65:7
CMPSPC . . . . . . . . . . . . . A58E  42382  LBL WORD  code2.a65:13
KLOOP1 . . . . . . . . . . . . . A5A4  42404  LBL WORD  code2.a65:24
MUSTCR . . . . . . . . . . . . . A5AC  42412  LBL WORD  code2.a65:28
RESER. . . . . . . . . . . . . . A5B6  42422  LBL WORD  code2.a65:34
RESCON . . . . . . . . . . . . . A5B8  42424  LBL WORD  code2.a65:36
GETBPT . . . . . . . . . . . . . A5C7  42439  LBL WORD  code2.a65:43
STUFFH . . . . . . . . . . . . . A5C9  42441  LBL WORD  code2.a65:44
COLIS. . . . . . . . . . . . . . A5DC  42460  LBL WORD  code2.a65:54
NODATT . . . . . . . . . . . . . A5DE  42462  LBL WORD  code2.a65:55
STR1 . . . . . . . . . . . . . . A5E5  42469  LBL WORD  code2.a65:59
STRNG. . . . . . . . . . . . . . A5EE  42478  LBL WORD  code2.a65:63
NTHIS. . . . . . . . . . . . . . A5F5  42485  LBL WORD  code2.a65:67
NTHIS1 . . . . . . . . . . . . . A5F9  42489  LBL WORD  code2.a65:69
CRDONE . . . . . . . . . . . . . A609  42505  LBL WORD  code2.a65:76
FNDLIN . . . . . . . . . . . . . A613  42515  LBL WORD  code2.a65:82
FNDLNC . . . . . . . . . . . . . A617  42519  LBL WORD  code2.a65:84
FNDLO1 . . . . . . . . . . . . . A62E  42542  LBL WORD  code2.a65:97
AFFRTS . . . . . . . . . . . . . A637  42551  LBL WORD  code2.a65:102
FLINRT . . . . . . . . . . . . . A640  42560  LBL WORD  code2.a65:108
FLNRTS . . . . . . . . . . . . . A641  42561  LBL WORD  code2.a65:109
SCRATH . . . . . . . . . . . . . A642  42562  LBL WORD  code2.a65:110
SCRTCH . . . . . . . . . . . . . A644  42564  LBL WORD  code2.a65:111
RUNC . . . . . . . . . . . . . . A659  42585  LBL WORD  code2.a65:123
CLEAR. . . . . . . . . . . . . . A65E  42590  LBL WORD  code2.a65:125
CLEARC . . . . . . . . . . . . . A660  42592  LBL WORD  code2.a65:126
CLEART . . . . . . . . . . . . . A663  42595  LBL WORD  code2.a65:127
FLOAD. . . . . . . . . . . . . . A677  42615  LBL WORD  code2.a65:137
STKINI . . . . . . . . . . . . . A67A  42618  LBL WORD  code2.a65:138
STKRTS . . . . . . . . . . . . . A68D  42637  LBL WORD  code2.a65:151
STXTPT . . . . . . . . . . . . . A68E  42638  LBL WORD  code2.a65:152
LIST . . . . . . . . . . . . . . A69C  42652  LBL WORD  code3.a65:2
GOLST. . . . . . . . . . . . . . A6A4  42660  LBL WORD  code3.a65:6
LSTEND . . . . . . . . . . . . . A6BB  42683  LBL WORD  code3.a65:15
LIST4. . . . . . . . . . . . . . A6C9  42697  LBL WORD  code3.a65:23
TSTDUN . . . . . . . . . . . . . A6E6  42726  LBL WORD  code3.a65:38
TYPLIN . . . . . . . . . . . . . A6E8  42728  LBL WORD  code3.a65:39
PRIT4. . . . . . . . . . . . . . A6EF  42735  LBL WORD  code3.a65:42
PLOOP. . . . . . . . . . . . . . A6F3  42739  LBL WORD  code3.a65:44
PLOOP1 . . . . . . . . . . . . . A700  42752  LBL WORD  code3.a65:50
GRODY. . . . . . . . . . . . . . A714  42772  LBL WORD  code3.a65:62
QPLOP. . . . . . . . . . . . . . A717  42775  LBL WORD  code3.a65:63
NQPLOP . . . . . . . . . . . . . A71A  42778  LBL WORD  code3.a65:64
RESRCH . . . . . . . . . . . . . A72C  42796  LBL WORD  code3.a65:74
RESCR1 . . . . . . . . . . . . . A72F  42799  LBL WORD  code3.a65:76
PRIT3. . . . . . . . . . . . . . A737  42807  LBL WORD  code3.a65:80
FOR. . . . . . . . . . . . . . . A742  42818  LBL WORD  code3.a65:85
NOTOL. . . . . . . . . . . . . . A753  42835  LBL WORD  code3.a65:94
LDFONE . . . . . . . . . . . . . A78B  42891  LBL WORD  code3.a65:123
ONEON. . . . . . . . . . . . . . A79F  42911  LBL WORD  code3.a65:131
NEWSTT . . . . . . . . . . . . . A7AE  42926  LBL WORD  code4.a65:2
DIRCON . . . . . . . . . . . . . A7BE  42942  LBL WORD  code4.a65:10
DIRCN1 . . . . . . . . . . . . . A7CE  42958  LBL WORD  code4.a65:18
GONE . . . . . . . . . . . . . . A7E1  42977  LBL WORD  code4.a65:29
NGONE. . . . . . . . . . . . . . A7E4  42980  LBL WORD  code4.a65:30
NGONE1 . . . . . . . . . . . . . A7E7  42983  LBL WORD  code4.a65:31
GONE3. . . . . . . . . . . . . . A7ED  42989  LBL WORD  code4.a65:33
GONE2. . . . . . . . . . . . . . A7EF  42991  LBL WORD  code4.a65:34
GLET . . . . . . . . . . . . . . A804  43012  LBL WORD  code4.a65:45
MORSTS . . . . . . . . . . . . . A807  43015  LBL WORD  code4.a65:46
SNERR1 . . . . . . . . . . . . . A80B  43019  LBL WORD  code4.a65:48
SNERRX . . . . . . . . . . . . . A80E  43022  LBL WORD  code4.a65:49
RESTOR . . . . . . . . . . . . . A81D  43037  LBL WORD  code4.a65:55
RESFIN . . . . . . . . . . . . . A827  43047  LBL WORD  code4.a65:61
ISCRTS . . . . . . . . . . . . . A82B  43051  LBL WORD  code4.a65:63
ISCNTC . . . . . . . . . . . . . A82C  43052  LBL WORD  code4.a65:64
STOP . . . . . . . . . . . . . . A82F  43055  LBL WORD  code4.a65:65
END. . . . . . . . . . . . . . . A831  43057  LBL WORD  code4.a65:66
STOPC. . . . . . . . . . . . . . A832  43058  LBL WORD  code4.a65:67
STPEND . . . . . . . . . . . . . A841  43073  LBL WORD  code4.a65:75
DIRIS. . . . . . . . . . . . . . A849  43081  LBL WORD  code4.a65:79
ENDCON . . . . . . . . . . . . . A84B  43083  LBL WORD  code4.a65:81
GORDY. . . . . . . . . . . . . . A854  43092  LBL WORD  code4.a65:85
CONT . . . . . . . . . . . . . . A857  43095  LBL WORD  code4.a65:86
CONTRT . . . . . . . . . . . . . A870  43120  LBL WORD  code4.a65:98
RUN. . . . . . . . . . . . . . . A871  43121  LBL WORD  code4.a65:99
GOSUB. . . . . . . . . . . . . . A883  43139  LBL WORD  code4.a65:107
RUNC2. . . . . . . . . . . . . . A897  43159  LBL WORD  code4.a65:119
GOTO . . . . . . . . . . . . . . A8A0  43168  LBL WORD  code4.a65:122
LUK4IT . . . . . . . . . . . . . A8BC  43196  LBL WORD  code4.a65:137
LUKALL . . . . . . . . . . . . . A8C0  43200  LBL WORD  code4.a65:139
GORTS. . . . . . . . . . . . . . A8D1  43217  LBL WORD  code5.a65:6
RETURN . . . . . . . . . . . . . A8D2  43218  LBL WORD  code5.a65:7
USERR. . . . . . . . . . . . . . A8E3  43235  LBL WORD  code5.a65:16
SNERR2 . . . . . . . . . . . . . A8E8  43240  LBL WORD  code5.a65:18
RETU1. . . . . . . . . . . . . . A8EB  43243  LBL WORD  code5.a65:19
DATA . . . . . . . . . . . . . . A8F8  43256  LBL WORD  code5.a65:28
ADDON. . . . . . . . . . . . . . A8FB  43259  LBL WORD  code5.a65:29
REMRTS . . . . . . . . . . . . . A905  43269  LBL WORD  code5.a65:35
DATAN. . . . . . . . . . . . . . A906  43270  LBL WORD  code5.a65:36
REMN . . . . . . . . . . . . . . A909  43273  LBL WORD  code5.a65:38
EXCHQT . . . . . . . . . . . . . A911  43281  LBL WORD  code5.a65:42
REMER. . . . . . . . . . . . . . A919  43289  LBL WORD  code5.a65:46
IF . . . . . . . . . . . . . . . A928  43304  LBL WORD  code5.a65:54
OKGOTO . . . . . . . . . . . . . A937  43319  LBL WORD  code5.a65:60
REM. . . . . . . . . . . . . . . A93B  43323  LBL WORD  code5.a65:62
DOCOND . . . . . . . . . . . . . A940  43328  LBL WORD  code5.a65:64
DOCO . . . . . . . . . . . . . . A948  43336  LBL WORD  code5.a65:67
ONGOTO . . . . . . . . . . . . . A94B  43339  LBL WORD  code5.a65:68
SNERR3 . . . . . . . . . . . . . A953  43347  LBL WORD  code5.a65:72
ONGLOP . . . . . . . . . . . . . A957  43351  LBL WORD  code5.a65:74
ONGLP1 . . . . . . . . . . . . . A95F  43359  LBL WORD  code5.a65:78
ONGRTS . . . . . . . . . . . . . A96A  43370  LBL WORD  code5.a65:83
LINGET . . . . . . . . . . . . . A96B  43371  LBL WORD  code5.a65:84
MORLIN . . . . . . . . . . . . . A971  43377  LBL WORD  code5.a65:87
NXTLGC . . . . . . . . . . . . . A99F  43423  LBL WORD  code5.a65:111
LET. . . . . . . . . . . . . . . A9A5  43429  LBL WORD  code5.a65:113
QINTGR . . . . . . . . . . . . . A9C2  43458  LBL WORD  code5.a65:128
COPFLT . . . . . . . . . . . . . A9D6  43478  LBL WORD  code5.a65:138
COPSTR . . . . . . . . . . . . . A9D9  43481  LBL WORD  code5.a65:139
INPCOM . . . . . . . . . . . . . A9DA  43482  LBL WORD  code5.a65:140
TIMELP . . . . . . . . . . . . . A9ED  43501  LBL WORD  code6.a65:2
NOML6. . . . . . . . . . . . . . AA07  43527  LBL WORD  code6.a65:14
TIMNUM . . . . . . . . . . . . . AA1D  43549  LBL WORD  code6.a65:24
FCERR2 . . . . . . . . . . . . . AA24  43556  LBL WORD  code6.a65:27
GOTNUM . . . . . . . . . . . . . AA27  43559  LBL WORD  code6.a65:28
GETSPT . . . . . . . . . . . . . AA2C  43564  LBL WORD  code6.a65:30
QVARIA . . . . . . . . . . . . . AA3D  43581  LBL WORD  code6.a65:39
DNTCPY . . . . . . . . . . . . . AA4B  43595  LBL WORD  code6.a65:46
COPY . . . . . . . . . . . . . . AA52  43602  LBL WORD  code6.a65:49
COPYC. . . . . . . . . . . . . . AA68  43624  LBL WORD  code6.a65:59
PRINTN . . . . . . . . . . . . . AA80  43648  LBL WORD  code6.a65:72
CMD. . . . . . . . . . . . . . . AA86  43654  LBL WORD  code6.a65:74
SAVEIT . . . . . . . . . . . . . AA90  43664  LBL WORD  code6.a65:78
STRDON . . . . . . . . . . . . . AA9A  43674  LBL WORD  code6.a65:83
NEWCHR . . . . . . . . . . . . . AA9D  43677  LBL WORD  code6.a65:84
PRINT. . . . . . . . . . . . . . AAA0  43680  LBL WORD  code6.a65:85
PRINTC . . . . . . . . . . . . . AAA2  43682  LBL WORD  code6.a65:86
FININL . . . . . . . . . . . . . AACA  43722  LBL WORD  code6.a65:104
CRDO . . . . . . . . . . . . . . AAD7  43735  LBL WORD  code6.a65:111
CRFIN. . . . . . . . . . . . . . AAE5  43749  LBL WORD  code6.a65:118
PRTRTS . . . . . . . . . . . . . AAE7  43751  LBL WORD  code6.a65:119
COMPRT . . . . . . . . . . . . . AAE8  43752  LBL WORD  code6.a65:120
MORCO1 . . . . . . . . . . . . . AAEE  43758  LBL WORD  code6.a65:125
TABER. . . . . . . . . . . . . . AAF8  43768  LBL WORD  code6.a65:130
ASPAC. . . . . . . . . . . . . . AB0E  43790  LBL WORD  code6.a65:142
XSPAC. . . . . . . . . . . . . . AB0F  43791  LBL WORD  code6.a65:143
XSPAC2 . . . . . . . . . . . . . AB10  43792  LBL WORD  code6.a65:144
NOTABR . . . . . . . . . . . . . AB13  43795  LBL WORD  code6.a65:146
XSPAC1 . . . . . . . . . . . . . AB19  43801  LBL WORD  code7.a65:2
STROUT . . . . . . . . . . . . . AB1E  43806  LBL WORD  code7.a65:4
STRPRT . . . . . . . . . . . . . AB21  43809  LBL WORD  code7.a65:5
STRPR2 . . . . . . . . . . . . . AB28  43816  LBL WORD  code7.a65:9
OUTSPC . . . . . . . . . . . . . AB3B  43835  LBL WORD  code7.a65:18
CRTSKP . . . . . . . . . . . . . AB42  43842  LBL WORD  code7.a65:23
OUTQST . . . . . . . . . . . . . AB45  43845  LBL WORD  code7.a65:25
OUTDO. . . . . . . . . . . . . . AB47  43847  LBL WORD  code7.a65:26
OUTRTS . . . . . . . . . . . . . AB4A  43850  LBL WORD  code7.a65:27
TRMNOK . . . . . . . . . . . . . AB4D  43853  LBL WORD  code7.a65:29
GETDTL . . . . . . . . . . . . . AB57  43863  LBL WORD  code7.a65:34
STCURL . . . . . . . . . . . . . AB5B  43867  LBL WORD  code7.a65:36
SNERR4 . . . . . . . . . . . . . AB5F  43871  LBL WORD  code7.a65:38
TRMNO1 . . . . . . . . . . . . . AB62  43874  LBL WORD  code7.a65:39
DOAGIN . . . . . . . . . . . . . AB6B  43883  LBL WORD  code7.a65:43
GET. . . . . . . . . . . . . . . AB7B  43899  LBL WORD  code7.a65:51
GETTTY . . . . . . . . . . . . . AB92  43922  LBL WORD  code7.a65:61
INPUTN . . . . . . . . . . . . . ABA5  43941  LBL WORD  code7.a65:71
IODONE . . . . . . . . . . . . . ABB5  43957  LBL WORD  code7.a65:77
IORELE . . . . . . . . . . . . . ABB7  43959  LBL WORD  code7.a65:78
INPUT. . . . . . . . . . . . . . ABBF  43967  LBL WORD  code7.a65:82
NOTQTI . . . . . . . . . . . . . ABCE  43982  LBL WORD  code7.a65:88
GETAGN . . . . . . . . . . . . . ABD6  43990  LBL WORD  code7.a65:91
BUFFUL . . . . . . . . . . . . . ABEA  44010  LBL WORD  code7.a65:99
QINLIN . . . . . . . . . . . . . ABF9  44025  LBL WORD  code7.a65:105
GINLIN . . . . . . . . . . . . . AC03  44035  LBL WORD  code7.a65:109
READ . . . . . . . . . . . . . . AC06  44038  LBL WORD  code7.a65:110
INPCON . . . . . . . . . . . . . AC0D  44045  LBL WORD  code7.a65:115
INPCO1 . . . . . . . . . . . . . AC0F  44047  LBL WORD  code7.a65:116
INLOOP . . . . . . . . . . . . . AC15  44053  LBL WORD  code7.a65:119
QDATA. . . . . . . . . . . . . . AC41  44097  LBL WORD  code7.a65:140
GETNTH . . . . . . . . . . . . . AC4A  44106  LBL WORD  code7.a65:144
DATBK. . . . . . . . . . . . . . AC4D  44109  LBL WORD  code7.a65:145
DATBK1 . . . . . . . . . . . . . AC51  44113  LBL WORD  code8.a65:2
SETQUT . . . . . . . . . . . . . AC65  44133  LBL WORD  code8.a65:12
RESETC . . . . . . . . . . . . . AC71  44145  LBL WORD  code8.a65:18
NOWGET . . . . . . . . . . . . . AC72  44146  LBL WORD  code8.a65:19
NOWGE1 . . . . . . . . . . . . . AC7D  44157  LBL WORD  code8.a65:25
NUMINS . . . . . . . . . . . . . AC89  44169  LBL WORD  code8.a65:29
STRDN2 . . . . . . . . . . . . . AC91  44177  LBL WORD  code8.a65:32
TRMOK. . . . . . . . . . . . . . AC9D  44189  LBL WORD  code8.a65:37
DATLOP . . . . . . . . . . . . . ACB8  44216  LBL WORD  code8.a65:49
NOWLIN . . . . . . . . . . . . . ACD1  44241  LBL WORD  code8.a65:64
VAREND . . . . . . . . . . . . . ACDF  44255  LBL WORD  code8.a65:70
VARY0. . . . . . . . . . . . . . ACEA  44266  LBL WORD  code8.a65:75
INPRTS . . . . . . . . . . . . . ACFB  44283  LBL WORD  code8.a65:83
EXIGNT . . . . . . . . . . . . . ACFC  44284  LBL WORD  code8.a65:84
TRYAGN . . . . . . . . . . . . . AD0C  44300  LBL WORD  code8.a65:87
NEXT . . . . . . . . . . . . . . AD1E  44318  LBL WORD  code8.a65:90
GETFOR . . . . . . . . . . . . . AD24  44324  LBL WORD  code8.a65:93
STXFOR . . . . . . . . . . . . . AD27  44327  LBL WORD  code8.a65:94
ERRGO5 . . . . . . . . . . . . . AD32  44338  LBL WORD  code8.a65:99
HAVFOR . . . . . . . . . . . . . AD35  44341  LBL WORD  code8.a65:100
NEWSGO . . . . . . . . . . . . . AD75  44405  LBL WORD  code8.a65:131
LOOPDN . . . . . . . . . . . . . AD78  44408  LBL WORD  code8.a65:132
FRMNUM . . . . . . . . . . . . . AD8A  44426  LBL WORD  code8.a65:141
CHKNUM . . . . . . . . . . . . . AD8D  44429  LBL WORD  code8.a65:142
CHKSTR . . . . . . . . . . . . . AD8F  44431  LBL WORD  code8.a65:144
CHKVAL . . . . . . . . . . . . . AD90  44432  LBL WORD  code8.a65:145
CHKOK. . . . . . . . . . . . . . AD96  44438  LBL WORD  code9.a65:4
DOCSTR . . . . . . . . . . . . . AD97  44439  LBL WORD  code9.a65:5
CHKERR . . . . . . . . . . . . . AD99  44441  LBL WORD  code9.a65:6
ERRGO4 . . . . . . . . . . . . . AD9B  44443  LBL WORD  code9.a65:7
FRMEVL . . . . . . . . . . . . . AD9E  44446  LBL WORD  code9.a65:8
FRMEV1 . . . . . . . . . . . . . ADA4  44452  LBL WORD  code9.a65:11
LPOPER . . . . . . . . . . . . . ADA9  44457  LBL WORD  code9.a65:14
TSTOP. . . . . . . . . . . . . . ADB8  44472  LBL WORD  code9.a65:22
LOPREL . . . . . . . . . . . . . ADBB  44475  LBL WORD  code9.a65:23
ENDREL . . . . . . . . . . . . . ADD7  44503  LBL WORD  code9.a65:37
QPREC. . . . . . . . . . . . . . ADF0  44528  LBL WORD  code9.a65:50
DOPREC . . . . . . . . . . . . . ADF9  44537  LBL WORD  code9.a65:54
NEGPRC . . . . . . . . . . . . . ADFA  44538  LBL WORD  code9.a65:55
FINREL . . . . . . . . . . . . . AE07  44551  LBL WORD  code9.a65:62
FINRE2 . . . . . . . . . . . . . AE11  44561  LBL WORD  code9.a65:68
QPREC1 . . . . . . . . . . . . . AE19  44569  LBL WORD  code9.a65:72
DOPRE1 . . . . . . . . . . . . . AE20  44576  LBL WORD  code9.a65:75
SNERR5 . . . . . . . . . . . . . AE30  44592  LBL WORD  code9.a65:82
PUSHF1 . . . . . . . . . . . . . AE33  44595  LBL WORD  code9.a65:83
PUSHF. . . . . . . . . . . . . . AE38  44600  LBL WORD  code9.a65:85
FORPSH . . . . . . . . . . . . . AE43  44611  LBL WORD  code9.a65:93
QOP. . . . . . . . . . . . . . . AE58  44632  LBL WORD  code9.a65:105
QOPGO. . . . . . . . . . . . . . AE5B  44635  LBL WORD  code9.a65:107
QCHNUM . . . . . . . . . . . . . AE5D  44637  LBL WORD  code9.a65:108
UNPSTK . . . . . . . . . . . . . AE64  44644  LBL WORD  code9.a65:111
PULSTK . . . . . . . . . . . . . AE66  44646  LBL WORD  code9.a65:112
QOPRTS . . . . . . . . . . . . . AE80  44672  LBL WORD  code9.a65:129
UNPRTS . . . . . . . . . . . . . AE82  44674  LBL WORD  code9.a65:130
EVAL . . . . . . . . . . . . . . AE83  44675  LBL WORD  code9.a65:132
NEVAL. . . . . . . . . . . . . . AE86  44678  LBL WORD  code9.a65:133
EVAL0. . . . . . . . . . . . . . AE8A  44682  LBL WORD  code9.a65:135
EVAL1. . . . . . . . . . . . . . AE8F  44687  LBL WORD  code9.a65:137
EVAL2. . . . . . . . . . . . . . AE92  44690  LBL WORD  code9.a65:138
PIVAL. . . . . . . . . . . . . . AEA8  44712  LBL WORD  code9.a65:147
QDOT . . . . . . . . . . . . . . AEAD  44717  LBL WORD  code9.a65:152
STRTXT . . . . . . . . . . . . . AEBD  44733  LBL WORD  code9.a65:160
STRTX2 . . . . . . . . . . . . . AEC6  44742  LBL WORD  code9.a65:165
EVAL3. . . . . . . . . . . . . . AECC  44748  LBL WORD  code9.a65:167
NOTOP. . . . . . . . . . . . . . AED4  44756  LBL WORD  code9.a65:171
EVAL4. . . . . . . . . . . . . . AEE3  44771  LBL WORD  code9.a65:178
PARCHK . . . . . . . . . . . . . AEF1  44785  LBL WORD  code9.a65:184
CHKCLS . . . . . . . . . . . . . AEF7  44791  LBL WORD  code9.a65:186
CHKOPN . . . . . . . . . . . . . AEFA  44794  LBL WORD  code9.a65:188
CHKCOM . . . . . . . . . . . . . AEFD  44797  LBL WORD  code9.a65:190
SYNCHR . . . . . . . . . . . . . AEFF  44799  LBL WORD  code9.a65:191
SNERR. . . . . . . . . . . . . . AF08  44808  LBL WORD  code9.a65:195
DOMIN. . . . . . . . . . . . . . AF0D  44813  LBL WORD  code9.a65:197
GONPRC . . . . . . . . . . . . . AF0F  44815  LBL WORD  code9.a65:198
TSTROM . . . . . . . . . . . . . AF14  44820  LBL WORD  code10.a65:8
TSTR10 . . . . . . . . . . . . . AF27  44839  LBL WORD  code10.a65:20
ISVAR. . . . . . . . . . . . . . AF28  44840  LBL WORD  code10.a65:22
ZZ6. . . . . . . . . . . . . . . AF2A  44842  VAR WORD  code11.a65:95
ISVRET . . . . . . . . . . . . . AF2B  44843  LBL WORD  code10.a65:23
STRRTS . . . . . . . . . . . . . AF5C  44892  LBL WORD  code10.a65:46
GOOO . . . . . . . . . . . . . . AF5D  44893  LBL WORD  code10.a65:47
GOOOOO . . . . . . . . . . . . . AF6E  44910  LBL WORD  code10.a65:57
GETTIM . . . . . . . . . . . . . AF84  44932  LBL WORD  code10.a65:67
QSTATV . . . . . . . . . . . . . AF92  44946  LBL WORD  code10.a65:74
GOMOVF . . . . . . . . . . . . . AFA0  44960  LBL WORD  code10.a65:80
ISFUN. . . . . . . . . . . . . . AFA7  44967  LBL WORD  code10.a65:83
OKNORM . . . . . . . . . . . . . AFD1  45009  LBL WORD  code10.a65:107
FINGO. . . . . . . . . . . . . . AFD6  45014  LBL WORD  code10.a65:110
OROP . . . . . . . . . . . . . . AFE6  45030  LBL WORD  code10.a65:116
ANDOP. . . . . . . . . . . . . . AFE9  45033  LBL WORD  code10.a65:118
DOREL. . . . . . . . . . . . . . B016  45078  LBL WORD  code10.a65:139
STRCMP . . . . . . . . . . . . . B02E  45102  LBL WORD  code10.a65:150
STASGN . . . . . . . . . . . . . B056  45142  LBL WORD  code10.a65:170
NXTCMP . . . . . . . . . . . . . B05B  45147  LBL WORD  code10.a65:173
QCOMP. . . . . . . . . . . . . . B061  45153  LBL WORD  code10.a65:177
GETCMP . . . . . . . . . . . . . B066  45158  LBL WORD  code10.a65:180
DOCMP. . . . . . . . . . . . . . B072  45170  LBL WORD  code11.a65:7
GOFLOT . . . . . . . . . . . . . B07B  45179  LBL WORD  code11.a65:13
DIM3 . . . . . . . . . . . . . . B07E  45182  LBL WORD  code11.a65:14
DIM. . . . . . . . . . . . . . . B081  45185  LBL WORD  code11.a65:15
PTRGET . . . . . . . . . . . . . B08B  45195  LBL WORD  code11.a65:20
PTRGT1 . . . . . . . . . . . . . B090  45200  LBL WORD  code11.a65:22
PTRGT2 . . . . . . . . . . . . . B092  45202  LBL WORD  code11.a65:23
INTERR . . . . . . . . . . . . . B09C  45212  LBL WORD  code11.a65:27
PTRGT3 . . . . . . . . . . . . . B09F  45215  LBL WORD  code11.a65:28
ISSEC. . . . . . . . . . . . . . B0AF  45231  LBL WORD  code11.a65:35
EATEM. . . . . . . . . . . . . . B0B0  45232  LBL WORD  code11.a65:36
NOSEC. . . . . . . . . . . . . . B0BA  45242  LBL WORD  code11.a65:40
NOTSTR . . . . . . . . . . . . . B0C4  45252  LBL WORD  code11.a65:45
TURNON . . . . . . . . . . . . . B0D4  45268  LBL WORD  code11.a65:53
STRNAM . . . . . . . . . . . . . B0DB  45275  LBL WORD  code11.a65:57
STXFND . . . . . . . . . . . . . B0EF  45295  LBL WORD  code11.a65:67
LOPFND . . . . . . . . . . . . . B0F1  45297  LBL WORD  code11.a65:68
LOPFN. . . . . . . . . . . . . . B0FB  45307  LBL WORD  code11.a65:73
NOTIT. . . . . . . . . . . . . . B109  45321  LBL WORD  code11.a65:81
ISLETC . . . . . . . . . . . . . B113  45331  LBL WORD  code11.a65:87
ISLRTS . . . . . . . . . . . . . B11C  45340  LBL WORD  code11.a65:92
NOTFNS . . . . . . . . . . . . . B11D  45341  LBL WORD  code11.a65:93
LDZR . . . . . . . . . . . . . . B123  45347  LBL WORD  code11.a65:98
NOTEVL . . . . . . . . . . . . . B128  45352  LBL WORD  code11.a65:101
GOBADV . . . . . . . . . . . . . B138  45368  LBL WORD  code11.a65:109
QSTAVR . . . . . . . . . . . . . B13B  45371  LBL WORD  code11.a65:110
VAROK. . . . . . . . . . . . . . B143  45379  LBL WORD  code11.a65:115
NOTEVE . . . . . . . . . . . . . B159  45401  LBL WORD  code11.a65:127
FINPTR . . . . . . . . . . . . . B185  45445  LBL WORD  code11.a65:152
FINNOW . . . . . . . . . . . . . B18F  45455  LBL WORD  code11.a65:158
FMAPTR . . . . . . . . . . . . . B194  45460  LBL WORD  code11.a65:161
JSRGM. . . . . . . . . . . . . . B1A0  45472  LBL WORD  code11.a65:168
N32768 . . . . . . . . . . . . . B1A5  45477  LBL WORD  code12.a65:2
FLPINT . . . . . . . . . . . . . B1AA  45482  LBL WORD  code12.a65:3
INTIDX . . . . . . . . . . . . . B1B2  45490  LBL WORD  code12.a65:7
POSINT . . . . . . . . . . . . . B1B8  45496  LBL WORD  code12.a65:9
AYINT. . . . . . . . . . . . . . B1BF  45503  LBL WORD  code12.a65:12
NONONO . . . . . . . . . . . . . B1CC  45516  LBL WORD  code12.a65:18
QINTGO . . . . . . . . . . . . . B1CE  45518  LBL WORD  code12.a65:19
ISARY. . . . . . . . . . . . . . B1D1  45521  LBL WORD  code12.a65:20
INDLOP . . . . . . . . . . . . . B1DB  45531  LBL WORD  code12.a65:26
LOPFDA . . . . . . . . . . . . . B21C  45596  LBL WORD  code12.a65:62
LOPFDV . . . . . . . . . . . . . B228  45608  LBL WORD  code12.a65:68
NMARY1 . . . . . . . . . . . . . B237  45623  LBL WORD  code12.a65:76
BSERR. . . . . . . . . . . . . . B245  45637  LBL WORD  code12.a65:85
FCERR. . . . . . . . . . . . . . B248  45640  LBL WORD  code12.a65:87
ERRGO3 . . . . . . . . . . . . . B24A  45642  LBL WORD  code12.a65:88
GOTARY . . . . . . . . . . . . . B24D  45645  LBL WORD  code12.a65:89
NOTFDD . . . . . . . . . . . . . B261  45665  LBL WORD  code12.a65:98
NOTFLT . . . . . . . . . . . . . B274  45684  LBL WORD  code12.a65:107
STOMLT . . . . . . . . . . . . . B27D  45693  LBL WORD  code12.a65:113
LOPPTA . . . . . . . . . . . . . B286  45702  LBL WORD  code12.a65:119
NOTDIM . . . . . . . . . . . . . B296  45718  LBL WORD  code12.a65:129
GREASE . . . . . . . . . . . . . B2B9  45753  LBL WORD  code12.a65:149
ZERITA . . . . . . . . . . . . . B2C8  45768  LBL WORD  code13.a65:4
DECCUR . . . . . . . . . . . . . B2CD  45773  LBL WORD  code13.a65:7
GETDEF . . . . . . . . . . . . . B2EA  45802  LBL WORD  code13.a65:23
INLPNM . . . . . . . . . . . . . B2F2  45810  LBL WORD  code13.a65:27
BSERR7 . . . . . . . . . . . . . B308  45832  LBL WORD  code13.a65:41
OMERR1 . . . . . . . . . . . . . B30B  45835  LBL WORD  code13.a65:42
INLPN2 . . . . . . . . . . . . . B30E  45838  LBL WORD  code13.a65:43
INLPN1 . . . . . . . . . . . . . B30F  45839  LBL WORD  code13.a65:44
ADDIND . . . . . . . . . . . . . B320  45856  LBL WORD  code13.a65:54
NOTFL1 . . . . . . . . . . . . . B331  45873  LBL WORD  code13.a65:63
STOML1 . . . . . . . . . . . . . B337  45879  LBL WORD  code13.a65:67
DIMRTS . . . . . . . . . . . . . B34B  45899  LBL WORD  code13.a65:78
UMULT. . . . . . . . . . . . . . B34C  45900  LBL WORD  code13.a65:79
UMULTD . . . . . . . . . . . . . B355  45909  LBL WORD  code13.a65:84
UMULTC . . . . . . . . . . . . . B35F  45919  LBL WORD  code13.a65:89
UMLCNT . . . . . . . . . . . . . B378  45944  LBL WORD  code13.a65:107
UMLRTS . . . . . . . . . . . . . B37C  45948  LBL WORD  code13.a65:109
FRE. . . . . . . . . . . . . . . B37D  45949  LBL WORD  code13.a65:110
NOFREF . . . . . . . . . . . . . B384  45956  LBL WORD  code13.a65:113
GIVAYF . . . . . . . . . . . . . B391  45969  LBL WORD  code13.a65:120
POS. . . . . . . . . . . . . . . B39E  45982  LBL WORD  code13.a65:126
SNGFLT . . . . . . . . . . . . . B3A2  45986  LBL WORD  code13.a65:128
ERRDIR . . . . . . . . . . . . . B3A6  45990  LBL WORD  code13.a65:130
ERRGUF . . . . . . . . . . . . . B3AE  45998  LBL WORD  code13.a65:135
DEF. . . . . . . . . . . . . . . B3B3  46003  LBL WORD  code13.a65:137
GETFNM . . . . . . . . . . . . . B3E1  46049  LBL WORD  code14.a65:7
FNDOER . . . . . . . . . . . . . B3F4  46068  LBL WORD  code14.a65:15
DEFSTF . . . . . . . . . . . . . B418  46104  LBL WORD  code14.a65:35
DEFFIN . . . . . . . . . . . . . B44F  46159  LBL WORD  code14.a65:66
STRD . . . . . . . . . . . . . . B465  46181  LBL WORD  code14.a65:82
TIMSTR . . . . . . . . . . . . . B46F  46191  LBL WORD  code14.a65:87
STRINI . . . . . . . . . . . . . B475  46197  LBL WORD  code14.a65:90
STRSPA . . . . . . . . . . . . . B47D  46205  LBL WORD  code14.a65:94
STRLIT . . . . . . . . . . . . . B487  46215  LBL WORD  code14.a65:99
STRLT2 . . . . . . . . . . . . . B48D  46221  LBL WORD  code14.a65:102
STRGET . . . . . . . . . . . . . B497  46231  LBL WORD  code14.a65:107
STRFIN . . . . . . . . . . . . . B4A4  46244  LBL WORD  code14.a65:114
STRFI1 . . . . . . . . . . . . . B4A8  46248  LBL WORD  code14.a65:116
STRFI2 . . . . . . . . . . . . . B4A9  46249  LBL WORD  code14.a65:117
STRST2 . . . . . . . . . . . . . B4B5  46261  LBL WORD  code14.a65:124
STRCP. . . . . . . . . . . . . . B4BF  46271  LBL WORD  code14.a65:129
PUTNEW . . . . . . . . . . . . . B4CA  46282  LBL WORD  code14.a65:134
ERRGO2 . . . . . . . . . . . . . B4D2  46290  LBL WORD  code14.a65:138
PUTNW1 . . . . . . . . . . . . . B4D5  46293  LBL WORD  code14.a65:139
GETSPA . . . . . . . . . . . . . B4F4  46324  LBL WORD  code14.a65:157
TRYAG2 . . . . . . . . . . . . . B4F6  46326  LBL WORD  code14.a65:158
TRYAG3 . . . . . . . . . . . . . B501  46337  LBL WORD  code14.a65:165
STRFRE . . . . . . . . . . . . . B50B  46347  LBL WORD  code14.a65:170
GARBAG . . . . . . . . . . . . . B516  46358  LBL WORD  code14.a65:177
GARBA2 . . . . . . . . . . . . . B526  46374  LBL WORD  code14.a65:185
FNDVAR . . . . . . . . . . . . . B52A  46378  LBL WORD  code14.a65:187
TVAR . . . . . . . . . . . . . . B544  46404  LBL WORD  code14.a65:200
SVARS. . . . . . . . . . . . . . B54D  46413  LBL WORD  code14.a65:204
SVAR . . . . . . . . . . . . . . B559  46425  LBL WORD  code15.a65:4
SVARGO . . . . . . . . . . . . . B561  46433  LBL WORD  code15.a65:8
ARYVAR . . . . . . . . . . . . . B566  46438  LBL WORD  code15.a65:10
ARYVA2 . . . . . . . . . . . . . B56E  46446  LBL WORD  code15.a65:14
ARYVA3 . . . . . . . . . . . . . B572  46450  LBL WORD  code15.a65:16
ARYVGO . . . . . . . . . . . . . B57D  46461  LBL WORD  code15.a65:21
ARYGET . . . . . . . . . . . . . B5AE  46510  LBL WORD  code15.a65:50
ARYSTR . . . . . . . . . . . . . B5B0  46512  LBL WORD  code15.a65:51
GOGO . . . . . . . . . . . . . . B5B8  46520  LBL WORD  code15.a65:55
DVARS. . . . . . . . . . . . . . B5BD  46525  LBL WORD  code15.a65:57
DVAR . . . . . . . . . . . . . . B5C7  46535  LBL WORD  code15.a65:63
DVAR2. . . . . . . . . . . . . . B5DC  46556  LBL WORD  code15.a65:75
DVAR3. . . . . . . . . . . . . . B5E6  46566  LBL WORD  code15.a65:80
DVARTS . . . . . . . . . . . . . B5F6  46582  LBL WORD  code15.a65:88
GRBRTS . . . . . . . . . . . . . B601  46593  LBL WORD  code15.a65:94
GRBPAS . . . . . . . . . . . . . B606  46598  LBL WORD  code15.a65:97
CAT. . . . . . . . . . . . . . . B63D  46653  LBL WORD  code15.a65:126
SIZEOK . . . . . . . . . . . . . B65D  46685  LBL WORD  code15.a65:143
MOVINS . . . . . . . . . . . . . B67A  46714  LBL WORD  code15.a65:154
MOVSTR . . . . . . . . . . . . . B688  46728  LBL WORD  code16.a65:8
MOVDO. . . . . . . . . . . . . . B68C  46732  LBL WORD  code16.a65:10
MOVLP. . . . . . . . . . . . . . B690  46736  LBL WORD  code16.a65:13
MVDONE . . . . . . . . . . . . . B699  46745  LBL WORD  code16.a65:19
MVSTRT . . . . . . . . . . . . . B6A2  46754  LBL WORD  code16.a65:24
FRESTR . . . . . . . . . . . . . B6A3  46755  LBL WORD  code16.a65:25
FREFAC . . . . . . . . . . . . . B6A6  46758  LBL WORD  code16.a65:26
FRETMP . . . . . . . . . . . . . B6AA  46762  LBL WORD  code16.a65:28
FREPLA . . . . . . . . . . . . . B6D5  46805  LBL WORD  code16.a65:54
FRETRT . . . . . . . . . . . . . B6D6  46806  LBL WORD  code16.a65:55
FRETMS . . . . . . . . . . . . . B6DB  46811  LBL WORD  code16.a65:58
FRERTS . . . . . . . . . . . . . B6EB  46827  LBL WORD  code16.a65:66
CHRD . . . . . . . . . . . . . . B6EC  46828  LBL WORD  code16.a65:67
LEFTD. . . . . . . . . . . . . . B700  46848  LBL WORD  code16.a65:78
RLEFT. . . . . . . . . . . . . . B706  46854  LBL WORD  code16.a65:81
RLEFT1 . . . . . . . . . . . . . B70C  46860  LBL WORD  code16.a65:85
RLEFT2 . . . . . . . . . . . . . B70D  46861  LBL WORD  code16.a65:86
RLEFT3 . . . . . . . . . . . . . B70E  46862  LBL WORD  code16.a65:87
PULMOR . . . . . . . . . . . . . B725  46885  LBL WORD  code16.a65:100
RIGHTD . . . . . . . . . . . . . B72C  46892  LBL WORD  code16.a65:103
MIDD . . . . . . . . . . . . . . B737  46903  LBL WORD  code16.a65:108
MID2 . . . . . . . . . . . . . . B748  46920  LBL WORD  code16.a65:115
PREAM. . . . . . . . . . . . . . B761  46945  LBL WORD  code16.a65:129
LEN. . . . . . . . . . . . . . . B77C  46972  LBL WORD  code16.a65:149
LEN1 . . . . . . . . . . . . . . B782  46978  LBL WORD  code16.a65:151
ASC. . . . . . . . . . . . . . . B78B  46987  LBL WORD  code16.a65:156
GOFUC. . . . . . . . . . . . . . B798  47000  LBL WORD  code16.a65:162
GTBYTC . . . . . . . . . . . . . B79B  47003  LBL WORD  code16.a65:163
GETBYT . . . . . . . . . . . . . B79E  47006  LBL WORD  code17.a65:2
CONINT . . . . . . . . . . . . . B7A1  47009  LBL WORD  code17.a65:3
VAL. . . . . . . . . . . . . . . B7AD  47021  LBL WORD  code17.a65:8
VAL2 . . . . . . . . . . . . . . B7CD  47053  LBL WORD  code17.a65:24
ST2TXT . . . . . . . . . . . . . B7E2  47074  LBL WORD  code17.a65:35
VALRTS . . . . . . . . . . . . . B7EA  47082  LBL WORD  code17.a65:39
GETNUM . . . . . . . . . . . . . B7EB  47083  LBL WORD  code17.a65:40
COMBYT . . . . . . . . . . . . . B7F1  47089  LBL WORD  code17.a65:42
GETADR . . . . . . . . . . . . . B7F7  47095  LBL WORD  code17.a65:44
PEEK . . . . . . . . . . . . . . B80D  47117  LBL WORD  code17.a65:55
GETCON . . . . . . . . . . . . . B818  47128  LBL WORD  code17.a65:61
DOSGFL . . . . . . . . . . . . . B81B  47131  LBL WORD  code17.a65:63
POKE . . . . . . . . . . . . . . B824  47140  LBL WORD  code17.a65:68
FNWAIT . . . . . . . . . . . . . B82D  47149  LBL WORD  code17.a65:73
STORDO . . . . . . . . . . . . . B83C  47164  LBL WORD  code17.a65:79
WAITER . . . . . . . . . . . . . B840  47168  LBL WORD  code17.a65:81
ZERRTS . . . . . . . . . . . . . B848  47176  LBL WORD  code17.a65:85
FADDH. . . . . . . . . . . . . . B849  47177  LBL WORD  code17.a65:86
FSUB . . . . . . . . . . . . . . B850  47184  LBL WORD  code17.a65:89
FSUBT. . . . . . . . . . . . . . B853  47187  LBL WORD  code17.a65:90
FADD5. . . . . . . . . . . . . . B862  47202  LBL WORD  code17.a65:97
FADD . . . . . . . . . . . . . . B867  47207  LBL WORD  code17.a65:99
FADDT. . . . . . . . . . . . . . B86A  47210  LBL WORD  code17.a65:100
FADDC. . . . . . . . . . . . . . B877  47223  LBL WORD  code17.a65:106
FADDA. . . . . . . . . . . . . . B893  47251  LBL WORD  code17.a65:121
FADD1. . . . . . . . . . . . . . B897  47255  LBL WORD  code17.a65:123
FADD4. . . . . . . . . . . . . . B8A3  47267  LBL WORD  code17.a65:129
SUBIT. . . . . . . . . . . . . . B8AF  47279  LBL WORD  code17.a65:135
FADFLT . . . . . . . . . . . . . B8D2  47314  LBL WORD  code17.a65:151
NORMAL . . . . . . . . . . . . . B8D7  47319  LBL WORD  code17.a65:153
NORM3. . . . . . . . . . . . . . B8DB  47323  LBL WORD  code17.a65:156
ZEROFC . . . . . . . . . . . . . B8F7  47351  LBL WORD  code18.a65:14
ZEROF1 . . . . . . . . . . . . . B8F9  47353  LBL WORD  code18.a65:15
ZEROML . . . . . . . . . . . . . B8FB  47355  LBL WORD  code18.a65:16
FADD2. . . . . . . . . . . . . . B8FE  47358  LBL WORD  code18.a65:18
NORM2. . . . . . . . . . . . . . B91D  47389  LBL WORD  code18.a65:33
NORM1. . . . . . . . . . . . . . B929  47401  LBL WORD  code18.a65:39
SQUEEZ . . . . . . . . . . . . . B936  47414  LBL WORD  code18.a65:46
RNDSHF . . . . . . . . . . . . . B938  47416  LBL WORD  code18.a65:47
RNDRTS . . . . . . . . . . . . . B946  47430  LBL WORD  code18.a65:54
NEGFAC . . . . . . . . . . . . . B947  47431  LBL WORD  code18.a65:55
NEGFCH . . . . . . . . . . . . . B94D  47437  LBL WORD  code18.a65:58
INCFAC . . . . . . . . . . . . . B96F  47471  LBL WORD  code18.a65:75
INCFRT . . . . . . . . . . . . . B97D  47485  LBL WORD  code18.a65:82
OVERR. . . . . . . . . . . . . . B97E  47486  LBL WORD  code18.a65:83
MULSHF . . . . . . . . . . . . . B983  47491  LBL WORD  code18.a65:85
SHFTR2 . . . . . . . . . . . . . B985  47493  LBL WORD  code18.a65:86
SHIFTR . . . . . . . . . . . . . B999  47513  LBL WORD  code18.a65:96
SHFTR3 . . . . . . . . . . . . . B9A6  47526  LBL WORD  code18.a65:103
SHFTR4 . . . . . . . . . . . . . B9AC  47532  LBL WORD  code18.a65:106
ROLSHF . . . . . . . . . . . . . B9B0  47536  LBL WORD  code18.a65:108
SHFTRT . . . . . . . . . . . . . B9BA  47546  LBL WORD  code18.a65:114
FONE . . . . . . . . . . . . . . B9BC  47548  LBL WORD  code18.a65:116
LOGCN2 . . . . . . . . . . . . . B9C1  47553  LBL WORD  code18.a65:117
SQR05. . . . . . . . . . . . . . B9D6  47574  LBL WORD  code18.a65:122
SQR20. . . . . . . . . . . . . . B9DB  47579  LBL WORD  code18.a65:123
NEGHLF . . . . . . . . . . . . . B9E0  47584  LBL WORD  code18.a65:124
LOG2 . . . . . . . . . . . . . . B9E5  47589  LBL WORD  code18.a65:125
LOG. . . . . . . . . . . . . . . B9EA  47594  LBL WORD  code19.a65:2
LOGERR . . . . . . . . . . . . . B9F1  47601  LBL WORD  code19.a65:5
LOG1 . . . . . . . . . . . . . . B9F4  47604  LBL WORD  code19.a65:6
FMULT. . . . . . . . . . . . . . BA28  47656  LBL WORD  code19.a65:30
FMULTT . . . . . . . . . . . . . BA2B  47659  LBL WORD  code19.a65:31
MLTPLY . . . . . . . . . . . . . BA59  47705  LBL WORD  code19.a65:50
MLTPL1 . . . . . . . . . . . . . BA5E  47710  LBL WORD  code19.a65:52
MLTPL2 . . . . . . . . . . . . . BA61  47713  LBL WORD  code19.a65:54
MLTPL3 . . . . . . . . . . . . . BA7D  47741  LBL WORD  code19.a65:69
MULTRT . . . . . . . . . . . . . BA8B  47755  LBL WORD  code19.a65:77
CONUPK . . . . . . . . . . . . . BA8C  47756  LBL WORD  code19.a65:78
MULDIV . . . . . . . . . . . . . BAB7  47799  LBL WORD  code19.a65:102
MLDEXP . . . . . . . . . . . . . BAB9  47801  LBL WORD  code19.a65:103
TRYOFF . . . . . . . . . . . . . BAC4  47812  LBL WORD  code19.a65:110
MLDVEX . . . . . . . . . . . . . BAD4  47828  LBL WORD  code19.a65:118
ZEREMV . . . . . . . . . . . . . BADA  47834  LBL WORD  code19.a65:121
GOOVER . . . . . . . . . . . . . BADF  47839  LBL WORD  code19.a65:124
MUL10. . . . . . . . . . . . . . BAE2  47842  LBL WORD  code19.a65:125
FINML6 . . . . . . . . . . . . . BAED  47853  LBL WORD  code19.a65:131
MUL10R . . . . . . . . . . . . . BAF8  47864  LBL WORD  code19.a65:136
TENC . . . . . . . . . . . . . . BAF9  47865  LBL WORD  code19.a65:137
DIV10. . . . . . . . . . . . . . BAFE  47870  LBL WORD  code19.a65:138
FDIVF. . . . . . . . . . . . . . BB07  47879  LBL WORD  code19.a65:142
FDIV . . . . . . . . . . . . . . BB0F  47887  LBL WORD  code19.a65:145
FDIVT. . . . . . . . . . . . . . BB12  47890  LBL WORD  code19.a65:146
DIVIDE . . . . . . . . . . . . . BB29  47913  LBL WORD  code19.a65:157
SAVQUO . . . . . . . . . . . . . BB3F  47935  LBL WORD  code19.a65:168
QSHFT. . . . . . . . . . . . . . BB4C  47948  LBL WORD  code19.a65:176
SHFARG . . . . . . . . . . . . . BB4F  47951  LBL WORD  code19.a65:178
DIVSUB . . . . . . . . . . . . . BB5D  47965  LBL WORD  code19.a65:185
LD100. . . . . . . . . . . . . . BB7A  47994  LBL WORD  code19.a65:200
DIVNRM . . . . . . . . . . . . . BB7E  47998  LBL WORD  code19.a65:202
DV0ERR . . . . . . . . . . . . . BB8A  48010  LBL WORD  code19.a65:211
MOVFR. . . . . . . . . . . . . . BB8F  48015  LBL WORD  code20.a65:2
MOVFM. . . . . . . . . . . . . . BBA2  48034  LBL WORD  code20.a65:11
MOV2F. . . . . . . . . . . . . . BBC7  48071  LBL WORD  code20.a65:32
MOV1F. . . . . . . . . . . . . . BBCA  48074  LBL WORD  code20.a65:34
MOVVF. . . . . . . . . . . . . . BBD0  48080  LBL WORD  code20.a65:37
MOVMF. . . . . . . . . . . . . . BBD4  48084  LBL WORD  code20.a65:39
MOVFA. . . . . . . . . . . . . . BBFC  48124  LBL WORD  code20.a65:61
MOVFA1 . . . . . . . . . . . . . BBFE  48126  LBL WORD  code20.a65:62
MOVFAL . . . . . . . . . . . . . BC02  48130  LBL WORD  code20.a65:64
MOVAF. . . . . . . . . . . . . . BC0C  48140  LBL WORD  code20.a65:70
MOVEF. . . . . . . . . . . . . . BC0F  48143  LBL WORD  code20.a65:71
MOVAFL . . . . . . . . . . . . . BC11  48145  LBL WORD  code20.a65:72
MOVRTS . . . . . . . . . . . . . BC1A  48154  LBL WORD  code20.a65:77
ROUND. . . . . . . . . . . . . . BC1B  48155  LBL WORD  code20.a65:78
INCRND . . . . . . . . . . . . . BC23  48163  LBL WORD  code20.a65:82
SIGN . . . . . . . . . . . . . . BC2B  48171  LBL WORD  code20.a65:85
FCSIGN . . . . . . . . . . . . . BC2F  48175  LBL WORD  code20.a65:87
FCOMPS . . . . . . . . . . . . . BC31  48177  LBL WORD  code20.a65:88
SIGNRT . . . . . . . . . . . . . BC38  48184  LBL WORD  code20.a65:92
SGN. . . . . . . . . . . . . . . BC39  48185  LBL WORD  code20.a65:93
FLOAT. . . . . . . . . . . . . . BC3C  48188  LBL WORD  code20.a65:94
FLOATS . . . . . . . . . . . . . BC44  48196  LBL WORD  code20.a65:98
FLOATC . . . . . . . . . . . . . BC49  48201  LBL WORD  code20.a65:101
FLOATB . . . . . . . . . . . . . BC4F  48207  LBL WORD  code20.a65:104
ABS. . . . . . . . . . . . . . . BC58  48216  LBL WORD  code20.a65:108
FCOMP. . . . . . . . . . . . . . BC5B  48219  LBL WORD  code20.a65:110
FCOMPN . . . . . . . . . . . . . BC5D  48221  LBL WORD  code20.a65:111
FCOMPC . . . . . . . . . . . . . BC92  48274  LBL WORD  code20.a65:140
FCOMPD . . . . . . . . . . . . . BC98  48280  LBL WORD  code20.a65:143
QINT . . . . . . . . . . . . . . BC9B  48283  LBL WORD  code21.a65:2
QISHFT . . . . . . . . . . . . . BCAF  48303  LBL WORD  code21.a65:13
QINTRT . . . . . . . . . . . . . BCBA  48314  LBL WORD  code21.a65:18
QINT1. . . . . . . . . . . . . . BCBB  48315  LBL WORD  code21.a65:19
INT. . . . . . . . . . . . . . . BCCC  48332  LBL WORD  code21.a65:28
CLRFAC . . . . . . . . . . . . . BCE9  48361  LBL WORD  code21.a65:42
INTRTS . . . . . . . . . . . . . BCF2  48370  LBL WORD  code21.a65:47
FIN. . . . . . . . . . . . . . . BCF3  48371  LBL WORD  code21.a65:48
FINZLP . . . . . . . . . . . . . BCF7  48375  LBL WORD  code21.a65:50
QPLUS. . . . . . . . . . . . . . BD06  48390  LBL WORD  code21.a65:58
FINC . . . . . . . . . . . . . . BD0A  48394  LBL WORD  code21.a65:60
FINDGQ . . . . . . . . . . . . . BD0D  48397  LBL WORD  code21.a65:61
FIN1 . . . . . . . . . . . . . . BD0F  48399  LBL WORD  code21.a65:62
FINEC1 . . . . . . . . . . . . . BD2E  48430  LBL WORD  code21.a65:77
FINEC. . . . . . . . . . . . . . BD30  48432  LBL WORD  code21.a65:78
FNEDG1 . . . . . . . . . . . . . BD33  48435  LBL WORD  code21.a65:79
FINEC2 . . . . . . . . . . . . . BD35  48437  LBL WORD  code21.a65:80
FINDP. . . . . . . . . . . . . . BD41  48449  LBL WORD  code21.a65:86
FINE . . . . . . . . . . . . . . BD47  48455  LBL WORD  code21.a65:89
FINE1. . . . . . . . . . . . . . BD49  48457  LBL WORD  code21.a65:90
FINDIV . . . . . . . . . . . . . BD52  48466  LBL WORD  code21.a65:95
FINMUL . . . . . . . . . . . . . BD5B  48475  LBL WORD  code21.a65:99
FINQNG . . . . . . . . . . . . . BD62  48482  LBL WORD  code21.a65:102
NEGXQS . . . . . . . . . . . . . BD67  48487  LBL WORD  code21.a65:105
FINDIG . . . . . . . . . . . . . BD6A  48490  LBL WORD  code21.a65:106
FINDG1 . . . . . . . . . . . . . BD71  48497  LBL WORD  code21.a65:110
FINLOG . . . . . . . . . . . . . BD7E  48510  LBL WORD  code21.a65:116
FINEDG . . . . . . . . . . . . . BD91  48529  LBL WORD  code21.a65:125
MLEX10 . . . . . . . . . . . . . BDA0  48544  LBL WORD  code21.a65:132
MLEXMI . . . . . . . . . . . . . BDAE  48558  LBL WORD  code21.a65:142
N0999. . . . . . . . . . . . . . BDB3  48563  LBL WORD  code22.a65:2
N9999. . . . . . . . . . . . . . BDB8  48568  LBL WORD  code22.a65:3
NMIL . . . . . . . . . . . . . . BDBD  48573  LBL WORD  code22.a65:4
INPRT. . . . . . . . . . . . . . BDC2  48578  LBL WORD  code22.a65:5
LINPRT . . . . . . . . . . . . . BDCD  48589  LBL WORD  code22.a65:10
STROU2 . . . . . . . . . . . . . BDDA  48602  LBL WORD  code22.a65:16
FOUT . . . . . . . . . . . . . . BDDD  48605  LBL WORD  code22.a65:17
FOUTC. . . . . . . . . . . . . . BDDF  48607  LBL WORD  code22.a65:18
FOUT1. . . . . . . . . . . . . . BDE7  48615  LBL WORD  code22.a65:22
FOUT37 . . . . . . . . . . . . . BE00  48640  LBL WORD  code22.a65:34
FOUT7. . . . . . . . . . . . . . BE09  48649  LBL WORD  code22.a65:38
FOUT4. . . . . . . . . . . . . . BE0B  48651  LBL WORD  code22.a65:39
FOUT3. . . . . . . . . . . . . . BE16  48662  LBL WORD  code22.a65:44
FOUT38 . . . . . . . . . . . . . BE21  48673  LBL WORD  code22.a65:49
FOUT9. . . . . . . . . . . . . . BE28  48680  LBL WORD  code22.a65:52
FOUT5. . . . . . . . . . . . . . BE2F  48687  LBL WORD  code22.a65:55
BIGGES . . . . . . . . . . . . . BE32  48690  LBL WORD  code22.a65:56
FOUTPI . . . . . . . . . . . . . BE47  48711  LBL WORD  code22.a65:67
FOUT6. . . . . . . . . . . . . . BE48  48712  LBL WORD  code22.a65:68
FOUT39 . . . . . . . . . . . . . BE53  48723  LBL WORD  code22.a65:74
FOUT16 . . . . . . . . . . . . . BE64  48740  LBL WORD  code22.a65:83
FOUT8. . . . . . . . . . . . . . BE66  48742  LBL WORD  code22.a65:84
FOUTIM . . . . . . . . . . . . . BE68  48744  LBL WORD  code22.a65:85
FOUT2. . . . . . . . . . . . . . BE6A  48746  LBL WORD  code22.a65:86
FOUT41 . . . . . . . . . . . . . BE8E  48782  LBL WORD  code22.a65:103
FOUT40 . . . . . . . . . . . . . BE90  48784  LBL WORD  code22.a65:104
FOUTYP . . . . . . . . . . . . . BE97  48791  LBL WORD  code22.a65:108
STXBUF . . . . . . . . . . . . . BEB2  48818  LBL WORD  code22.a65:124
FOULDY . . . . . . . . . . . . . BEC4  48836  LBL WORD  code22.a65:134
FOUT11 . . . . . . . . . . . . . BEC6  48838  LBL WORD  code22.a65:135
FOUT12 . . . . . . . . . . . . . BED3  48851  LBL WORD  code22.a65:142
FOUT14 . . . . . . . . . . . . . BEE3  48867  LBL WORD  code23.a65:3
FOUT15 . . . . . . . . . . . . . BEEF  48879  LBL WORD  code23.a65:9
FOUT19 . . . . . . . . . . . . . BF04  48900  LBL WORD  code23.a65:19
FOUT17 . . . . . . . . . . . . . BF07  48903  LBL WORD  code23.a65:20
FOUT20 . . . . . . . . . . . . . BF0C  48908  LBL WORD  code23.a65:22
FHALF. . . . . . . . . . . . . . BF11  48913  LBL WORD  code23.a65:25
ZERO . . . . . . . . . . . . . . BF13  48915  LBL WORD  code23.a65:26
FOUTBL . . . . . . . . . . . . . BF16  48918  LBL WORD  code23.a65:27
FDCEND . . . . . . . . . . . . . BF3A  48954  LBL WORD  code23.a65:35
CKSMA0 . . . . . . . . . . . . . BF52  48978  LBL WORD  code23.a65:42
TIMEND . . . . . . . . . . . . . BF52  48978  LBL WORD  code23.a65:40
PATCHS . . . . . . . . . . . . . BF53  48979  LBL WORD  code23.a65:43
SQR. . . . . . . . . . . . . . . BF71  49009  LBL WORD  code23.a65:45
FPWRT. . . . . . . . . . . . . . BF7B  49019  LBL WORD  code23.a65:49
FPWRT1 . . . . . . . . . . . . . BF84  49028  LBL WORD  code23.a65:53
FPWR1. . . . . . . . . . . . . . BF9E  49054  LBL WORD  code23.a65:65
NEGOP. . . . . . . . . . . . . . BFB4  49076  LBL WORD  code23.a65:76
NEGRTS . . . . . . . . . . . . . BFBE  49086  LBL WORD  code23.a65:81
LOGEB2 . . . . . . . . . . . . . BFBF  49087  LBL WORD  code24.a65:2
EXPCON . . . . . . . . . . . . . BFC4  49092  LBL WORD  code24.a65:3
EXP. . . . . . . . . . . . . . . BFED  49133  LBL WORD  code24.a65:16
STOLDX . . . . . . . . . . . . . BFFD  49149  LBL WORD  code24.a65:23
STOLD. . . . . . . . . . . . . . E000  57344  LBL WORD  code25.a65:10
GOMLDV . . . . . . . . . . . . . E00B  57355  LBL WORD  code25.a65:15
EXP1 . . . . . . . . . . . . . . E00E  57358  LBL WORD  code25.a65:16
SWAPLP . . . . . . . . . . . . . E01E  57374  LBL WORD  code25.a65:25
POLYX. . . . . . . . . . . . . . E043  57411  LBL WORD  code25.a65:43
POLY . . . . . . . . . . . . . . E059  57433  LBL WORD  code25.a65:52
POLY1. . . . . . . . . . . . . . E05D  57437  LBL WORD  code25.a65:54
POLY3. . . . . . . . . . . . . . E06C  57452  LBL WORD  code25.a65:62
POLY2. . . . . . . . . . . . . . E070  57456  LBL WORD  code25.a65:64
POLY4. . . . . . . . . . . . . . E07D  57469  LBL WORD  code25.a65:71
RMULC. . . . . . . . . . . . . . E08D  57485  LBL WORD  code25.a65:79
RADDC. . . . . . . . . . . . . . E092  57490  LBL WORD  code25.a65:80
RND. . . . . . . . . . . . . . . E097  57495  LBL WORD  code25.a65:81
QSETNR . . . . . . . . . . . . . E0BE  57534  LBL WORD  code25.a65:100
RND1 . . . . . . . . . . . . . . E0D3  57555  LBL WORD  code25.a65:109
STRNEX . . . . . . . . . . . . . E0E3  57571  LBL WORD  code25.a65:117
GMOVMF . . . . . . . . . . . . . E0F6  57590  LBL WORD  code25.a65:126
EREXIT . . . . . . . . . . . . . E0F9  57593  LBL WORD  code26.a65:4
EREXIX . . . . . . . . . . . . . E104  57604  LBL WORD  code26.a65:10
EREXIY . . . . . . . . . . . . . E109  57609  LBL WORD  code26.a65:13
OUTCH. . . . . . . . . . . . . . E10C  57612  LBL WORD  code26.a65:17
INCHR. . . . . . . . . . . . . . E112  57618  LBL WORD  code26.a65:21
COOUT. . . . . . . . . . . . . . E118  57624  LBL WORD  code26.a65:30
COIN . . . . . . . . . . . . . . E11E  57630  LBL WORD  code26.a65:34
CGETL. . . . . . . . . . . . . . E124  57636  LBL WORD  code26.a65:40
CSYS . . . . . . . . . . . . . . E12A  57642  LBL WORD  code26.a65:50
CSYSRZ . . . . . . . . . . . . . E146  57670  VAR WORD  code26.a65:63
CSAVE. . . . . . . . . . . . . . E156  57686  LBL WORD  code26.a65:72
CVERF. . . . . . . . . . . . . . E165  57701  LBL WORD  code26.a65:80
CLOAD. . . . . . . . . . . . . . E168  57704  LBL WORD  code26.a65:83
CLD10. . . . . . . . . . . . . . E16F  57711  LBL WORD  code26.a65:87
CLD20. . . . . . . . . . . . . . E194  57748  LBL WORD  code26.a65:115
CLD50. . . . . . . . . . . . . . E195  57749  LBL WORD  code26.a65:120
CLD55. . . . . . . . . . . . . . E19E  57758  LBL WORD  code26.a65:124
CLD60. . . . . . . . . . . . . . E1A1  57761  LBL WORD  code26.a65:126
CLD70. . . . . . . . . . . . . . E1B5  57781  LBL WORD  code26.a65:139
COPEN. . . . . . . . . . . . . . E1BE  57790  LBL WORD  code26.a65:143
CCLOS. . . . . . . . . . . . . . E1C7  57799  LBL WORD  code26.a65:148
JERXIT . . . . . . . . . . . . . E1D1  57809  LBL WORD  code26.a65:153
PLSV . . . . . . . . . . . . . . E1D4  57812  LBL WORD  code26.a65:158
PLSV7. . . . . . . . . . . . . . E200  57856  LBL WORD  code26.a65:185
PAOC20 . . . . . . . . . . . . . E206  57862  LBL WORD  code26.a65:190
PAOCX. . . . . . . . . . . . . . E20D  57869  LBL WORD  code26.a65:194
PAOC30 . . . . . . . . . . . . . E20E  57870  LBL WORD  code26.a65:198
PAOC32 . . . . . . . . . . . . . E211  57873  LBL WORD  code26.a65:199
PAOC40 . . . . . . . . . . . . . E216  57878  LBL WORD  code26.a65:201
PAOC . . . . . . . . . . . . . . E219  57881  LBL WORD  code26.a65:205
PAOC5. . . . . . . . . . . . . . E23F  57919  LBL WORD  code26.a65:223
PAOC7. . . . . . . . . . . . . . E251  57937  LBL WORD  code26.a65:231
PAOC15 . . . . . . . . . . . . . E257  57943  LBL WORD  code26.a65:233
COS. . . . . . . . . . . . . . . E264  57956  LBL WORD  trig.a65:2
SIN. . . . . . . . . . . . . . . E26B  57963  LBL WORD  trig.a65:5
SIN1 . . . . . . . . . . . . . . E29D  58013  LBL WORD  trig.a65:27
SIN2 . . . . . . . . . . . . . . E2A0  58016  LBL WORD  trig.a65:28
SIN3 . . . . . . . . . . . . . . E2AD  58029  LBL WORD  trig.a65:34
TAN. . . . . . . . . . . . . . . E2B4  58036  LBL WORD  trig.a65:37
COSC . . . . . . . . . . . . . . E2DC  58076  LBL WORD  trig.a65:54
PI2. . . . . . . . . . . . . . . E2E0  58080  LBL WORD  trig.a65:56
TWOPI. . . . . . . . . . . . . . E2E5  58085  LBL WORD  trig.a65:57
FR4. . . . . . . . . . . . . . . E2EA  58090  LBL WORD  trig.a65:58
SINCON . . . . . . . . . . . . . E2EF  58095  LBL WORD  trig.a65:59
ATN. . . . . . . . . . . . . . . E30E  58126  LBL WORD  trig.a65:65
ATN1 . . . . . . . . . . . . . . E316  58134  LBL WORD  trig.a65:69
ATN2 . . . . . . . . . . . . . . E324  58148  LBL WORD  trig.a65:76
ATN3 . . . . . . . . . . . . . . E337  58167  LBL WORD  trig.a65:85
ATN4 . . . . . . . . . . . . . . E33D  58173  LBL WORD  trig.a65:88
ATNCON . . . . . . . . . . . . . E33E  58174  LBL WORD  trig.a65:89
PANIC. . . . . . . . . . . . . . E37B  58235  LBL WORD  init.a65:2
READY. . . . . . . . . . . . . . E386  58246  LBL WORD  init.a65:8
NERROR . . . . . . . . . . . . . E38B  58251  LBL WORD  init.a65:10
NREADY . . . . . . . . . . . . . E391  58257  LBL WORD  init.a65:13
INIT . . . . . . . . . . . . . . E394  58260  LBL WORD  init.a65:15
INITAT . . . . . . . . . . . . . E3A2  58274  LBL WORD  init.a65:22
CHDGOT . . . . . . . . . . . . . E3A8  58280  LBL WORD  init.a65:25
CHDRTS . . . . . . . . . . . . . E3B9  58297  LBL WORD  init.a65:34
INITCZ . . . . . . . . . . . . . E3BF  58303  LBL WORD  init.a65:37
MOVCHG . . . . . . . . . . . . . E3E2  58338  LBL WORD  init.a65:53
USEDEF . . . . . . . . . . . . . E40E  58382  LBL WORD  init.a65:74
INIT20 . . . . . . . . . . . . . E421  58401  LBL WORD  init.a65:84
INITMS . . . . . . . . . . . . . E422  58402  LBL WORD  init.a65:86
BVTRS. . . . . . . . . . . . . . E447  58439  LBL WORD  init.a65:104
INITV. . . . . . . . . . . . . . E453  58451  LBL WORD  init.a65:106
INITV1 . . . . . . . . . . . . . E455  58453  LBL WORD  init.a65:107
CHKE0. . . . . . . . . . . . . . E45F  58463  LBL WORD  init.a65:112
WORDS. . . . . . . . . . . . . . E460  58464  LBL WORD  init.a65:114
FREMES . . . . . . . . . . . . . E473  58483  LBL WORD  init.a65:115
PPACH. . . . . . . . . . . . . . E4AD  58541  LBL WORD  init.a65:120
PPACH0 . . . . . . . . . . . . . E4B6  58550  LBL WORD  init.a65:126
SETMSG . . . . . . . . . . . . . FF90  65424  VAR WORD  code26.a65:46
READST . . . . . . . . . . . . . FFB7  65463  VAR WORD  code26.a65:38
CLSCHN . . . . . . . . . . . . . FFCC  65484  VAR WORD  code26.a65:15
SETTIM . . . . . . . . . . . . . FFDB  65499  VAR WORD  code26.a65:27
RDTIM. . . . . . . . . . . . . . FFDE  65502  VAR WORD  code26.a65:28
CCALL. . . . . . . . . . . . . . FFE7  65511  VAR WORD  code26.a65:25
PLOT . . . . . . . . . . . . . . FFF0  65520  VAR WORD  code26.a65:48
RDBAS. . . . . . . . . . . . . . FFF3  65523  VAR WORD  code26.a65:44
